(lp0
(I1150
I550
tp1
a(I1151
I550
tp2
a(I1152
I550
tp3
a(I1153
I550
tp4
a(I1154
I550
tp5
a(I1155
I550
tp6
a(I1156
I550
tp7
a(I1157
I550
tp8
a(I1158
I550
tp9
a(I1159
I550
tp10
a(I1160
I550
tp11
a(I1161
I550
tp12
a(I1162
I550
tp13
a(I1163
I550
tp14
a(I1164
I550
tp15
a(I1165
I550
tp16
a(I1166
I550
tp17
a(I1167
I550
tp18
a(I1168
I550
tp19
a(I1169
I550
tp20
a(I1170
I550
tp21
a(I1171
I550
tp22
a(I1172
I550
tp23
a(I1173
I550
tp24
a(I1174
I550
tp25
a(I1175
I550
tp26
a(I1176
I550
tp27
a(I1177
I550
tp28
a(I1178
I550
tp29
a(I1179
I550
tp30
a(I1180
I550
tp31
a(I1181
I550
tp32
a(I1182
I550
tp33
a(I1183
I550
tp34
a(I1184
I550
tp35
a(I1185
I550
tp36
a(I1186
I550
tp37
a(I1187
I550
tp38
a(I1188
I550
tp39
a(I1189
I550
tp40
a(I1190
I550
tp41
a(I1191
I550
tp42
a(I1192
I550
tp43
a(I1193
I550
tp44
a(I1194
I550
tp45
a(I1195
I550
tp46
a(I1196
I550
tp47
a(I1197
I550
tp48
a(I1198
I550
tp49
a(I1199
I550
tp50
a(I1200
I550
tp51
a(I1201
I550
tp52
a(I1202
I550
tp53
a(I1203
I550
tp54
a(I1204
I550
tp55
a(I1205
I550
tp56
a(I1206
I550
tp57
a(I1207
I550
tp58
a(I1208
I550
tp59
a(I1209
I550
tp60
a(I1210
I550
tp61
a(I1211
I550
tp62
a(I1212
I550
tp63
a(I1213
I550
tp64
a(I1214
I550
tp65
a(I1215
I550
tp66
a(I1216
I550
tp67
a(I1217
I550
tp68
a(I1218
I550
tp69
a(I1219
I550
tp70
a(I1220
I550
tp71
a(I1221
I550
tp72
a(I1222
I550
tp73
a(I1223
I550
tp74
a(I1224
I550
tp75
a(I1225
I550
tp76
a(I1226
I550
tp77
a(I1227
I550
tp78
a(I1228
I550
tp79
a(I1229
I550
tp80
a(I1230
I550
tp81
a(I1231
I550
tp82
a(I1232
I550
tp83
a(I1233
I550
tp84
a(I1234
I550
tp85
a(I1235
I550
tp86
a(I1236
I550
tp87
a(I1237
I550
tp88
a(I1238
I550
tp89
a(I1239
I550
tp90
a(I1240
I550
tp91
a(I1241
I550
tp92
a(I1242
I550
tp93
a(I1243
I550
tp94
a(I1244
I550
tp95
a(I1245
I550
tp96
a(I1246
I550
tp97
a(I1247
I550
tp98
a(I1248
I550
tp99
a(I1249
I550
tp100
a(I1250
I550
tp101
a(I1251
I550
tp102
a(I1252
I550
tp103
a(I1253
I550
tp104
a(I1254
I550
tp105
a(I1255
I550
tp106
a(I1256
I550
tp107
a(I1257
I550
tp108
a(I1258
I550
tp109
a(I1259
I550
tp110
a(I1260
I550
tp111
a(I1261
I550
tp112
a(I1262
I550
tp113
a(I1263
I550
tp114
a(I1264
I550
tp115
a(I1265
I550
tp116
a(I1266
I550
tp117
a(I1267
I550
tp118
a(I1268
I550
tp119
a(I1269
I550
tp120
a(I1270
I550
tp121
a(I1271
I550
tp122
a(I1272
I550
tp123
a(I1273
I550
tp124
a(I1274
I550
tp125
a(I1275
I550
tp126
a(I1276
I550
tp127
a(I1277
I550
tp128
a(I1278
I550
tp129
a(I1279
I550
tp130
a(I1280
I550
tp131
a(I1281
I550
tp132
a(I1282
I550
tp133
a(I1283
I550
tp134
a(I1284
I550
tp135
a(I1285
I550
tp136
a(I1286
I550
tp137
a(I1287
I550
tp138
a(I1288
I550
tp139
a(I1289
I550
tp140
a(I1290
I550
tp141
a(I1291
I550
tp142
a(I1292
I550
tp143
a(I1293
I550
tp144
a(I1294
I550
tp145
a(I1295
I550
tp146
a(I1296
I550
tp147
a(I1297
I550
tp148
a(I1298
I550
tp149
a(I1299
I550
tp150
a(I1300
I550
tp151
a(I1301
I550
tp152
a(I1302
I550
tp153
a(I1303
I550
tp154
a(I1304
I550
tp155
a(I1305
I550
tp156
a(I1306
I550
tp157
a(I1307
I550
tp158
a(I1308
I550
tp159
a(I1309
I550
tp160
a(I1310
I550
tp161
a(I1311
I550
tp162
a(I1312
I550
tp163
a(I1313
I550
tp164
a(I1314
I550
tp165
a(I1315
I550
tp166
a(I1316
I550
tp167
a(I1317
I550
tp168
a(I1318
I550
tp169
a(I1319
I550
tp170
a(I1320
I550
tp171
a(I1321
I550
tp172
a(I1322
I550
tp173
a(I1323
I550
tp174
a(I1324
I550
tp175
a(I1325
I550
tp176
a(I1326
I550
tp177
a(I1327
I550
tp178
a(I1328
I550
tp179
a(I1329
I550
tp180
a(I1330
I550
tp181
a(I1331
I550
tp182
a(I1332
I550
tp183
a(I1333
I550
tp184
a(I1334
I550
tp185
a(I1335
I550
tp186
a(I1336
I550
tp187
a(I1337
I550
tp188
a(I1338
I550
tp189
a(I1339
I550
tp190
a(I1340
I550
tp191
a(I1341
I550
tp192
a(I1342
I550
tp193
a(I1343
I550
tp194
a(I1344
I550
tp195
a(I1345
I550
tp196
a(I1346
I550
tp197
a(I1347
I550
tp198
a(I1348
I550
tp199
a(I1349
I550
tp200
a(I1350
I550
tp201
a(I1351
I550
tp202
a(I1352
I550
tp203
a(I1353
I550
tp204
a(I1354
I550
tp205
a(I1355
I550
tp206
a(I1356
I550
tp207
a(I1357
I550
tp208
a(I1358
I550
tp209
a(I1359
I550
tp210
a(I1360
I550
tp211
a(I1361
I550
tp212
a(I1362
I550
tp213
a(I1363
I550
tp214
a(I1364
I550
tp215
a(I1365
I550
tp216
a(I1366
I550
tp217
a(I1367
I550
tp218
a(I1368
I550
tp219
a(I1369
I550
tp220
a(I1370
I550
tp221
a(I1371
I550
tp222
a(I1372
I550
tp223
a(I1373
I550
tp224
a(I1374
I550
tp225
a(I1375
I550
tp226
a(I1376
I550
tp227
a(I1377
I550
tp228
a(I1378
I550
tp229
a(I1379
I550
tp230
a(I1380
I550
tp231
a(I1381
I550
tp232
a(I1382
I550
tp233
a(I1383
I550
tp234
a(I1384
I550
tp235
a(I1385
I550
tp236
a(I1386
I550
tp237
a(I1387
I550
tp238
a(I1388
I550
tp239
a(I1389
I550
tp240
a(I1390
I550
tp241
a(I1391
I550
tp242
a(I1392
I550
tp243
a(I1393
I550
tp244
a(I1394
I550
tp245
a(I1395
I550
tp246
a(I1396
I550
tp247
a(I1397
I550
tp248
a(I1398
I550
tp249
a(I1399
I550
tp250
a(I1400
I550
tp251
a(I1401
I550
tp252
a(I1402
I550
tp253
a(I1403
I550
tp254
a(I1404
I550
tp255
a(I1405
I550
tp256
a(I1406
I550
tp257
a(I1407
I550
tp258
a(I1408
I550
tp259
a(I1409
I550
tp260
a(I1410
I550
tp261
a(I1411
I550
tp262
a(I1412
I550
tp263
a(I1413
I550
tp264
a(I1414
I550
tp265
a(I1415
I550
tp266
a(I1416
I550
tp267
a(I1417
I550
tp268
a(I1418
I550
tp269
a(I1419
I550
tp270
a(I1420
I550
tp271
a(I1421
I550
tp272
a(I1422
I550
tp273
a(I1423
I550
tp274
a(I1424
I550
tp275
a(I1425
I550
tp276
a(I1426
I550
tp277
a(I1427
I550
tp278
a(I1428
I550
tp279
a(I1429
I550
tp280
a(I1430
I550
tp281
a(I1431
I550
tp282
a(I1432
I550
tp283
a(I1433
I550
tp284
a(I1434
I550
tp285
a(I1435
I550
tp286
a(I1436
I550
tp287
a(I1437
I550
tp288
a(I1438
I550
tp289
a(I1439
I550
tp290
a(I1440
I550
tp291
a(I1441
I550
tp292
a(I1442
I550
tp293
a(I1443
I550
tp294
a(I1444
I550
tp295
a(I1445
I550
tp296
a(I1446
I550
tp297
a(I1447
I550
tp298
a(I1448
I550
tp299
a(I1449
I550
tp300
a(I1450
I550
tp301
a(I1451
I550
tp302
a(I1452
I550
tp303
a(I1453
I550
tp304
a(I1454
I550
tp305
a(I1455
I550
tp306
a(I1456
I550
tp307
a(I1457
I550
tp308
a(I1458
I550
tp309
a(I1459
I550
tp310
a(I1460
I550
tp311
a(I1461
I550
tp312
a(I1462
I550
tp313
a(I1463
I550
tp314
a(I1464
I550
tp315
a(I1465
I550
tp316
a(I1466
I550
tp317
a(I1467
I550
tp318
a(I1468
I550
tp319
a(I1469
I550
tp320
a(I1470
I550
tp321
a(I1471
I550
tp322
a(I1472
I550
tp323
a(I1473
I550
tp324
a(I1474
I550
tp325
a(I1475
I550
tp326
a(I1476
I550
tp327
a(I1477
I550
tp328
a(I1478
I550
tp329
a(I1479
I550
tp330
a(I1480
I550
tp331
a(I1481
I550
tp332
a(I1482
I550
tp333
a(I1483
I550
tp334
a(I1484
I550
tp335
a(I1485
I550
tp336
a(I1486
I550
tp337
a(I1487
I550
tp338
a(I1488
I550
tp339
a(I1489
I550
tp340
a(I1490
I550
tp341
a(I1491
I550
tp342
a(I1492
I550
tp343
a(I1493
I550
tp344
a(I1494
I550
tp345
a(I1495
I550
tp346
a(I1496
I550
tp347
a(I1497
I550
tp348
a(I1498
I550
tp349
a(I1499
I550
tp350
a(I1500
I550
tp351
a(I1501
I550
tp352
a(I1502
I550
tp353
a(I1503
I550
tp354
a(I1504
I550
tp355
a(I1505
I550
tp356
a(I1506
I550
tp357
a(I1507
I550
tp358
a(I1508
I550
tp359
a(I1509
I550
tp360
a(I1510
I550
tp361
a(I1511
I550
tp362
a(I1512
I550
tp363
a(I1513
I550
tp364
a(I1514
I550
tp365
a(I1515
I550
tp366
a(I1516
I550
tp367
a(I1517
I550
tp368
a(I1518
I550
tp369
a(I1519
I550
tp370
a(I1520
I550
tp371
a(I1521
I550
tp372
a(I1522
I550
tp373
a(I1523
I550
tp374
a(I1524
I550
tp375
a(I1525
I550
tp376
a(I1526
I550
tp377
a(I1527
I550
tp378
a(I1528
I550
tp379
a(I1529
I550
tp380
a(I1530
I550
tp381
a(I1531
I550
tp382
a(I1532
I550
tp383
a(I1533
I550
tp384
a(I1534
I550
tp385
a(I1535
I550
tp386
a(I1536
I550
tp387
a(I1537
I550
tp388
a(I1538
I550
tp389
a(I1539
I550
tp390
a(I1540
I550
tp391
a(I1541
I550
tp392
a(I1542
I550
tp393
a(I1543
I550
tp394
a(I1544
I550
tp395
a(I1545
I550
tp396
a(I1546
I550
tp397
a(I1547
I550
tp398
a(I1548
I550
tp399
a(I1549
I550
tp400
a(I1550
I550
tp401
a(I1551
I550
tp402
a(I1552
I550
tp403
a(I1553
I550
tp404
a(I1554
I550
tp405
a(I1555
I550
tp406
a(I1556
I550
tp407
a(I1557
I550
tp408
a(I1558
I550
tp409
a(I1559
I550
tp410
a(I1560
I550
tp411
a(I1561
I550
tp412
a(I1562
I550
tp413
a(I1563
I550
tp414
a(I1564
I550
tp415
a(I1565
I550
tp416
a(I1566
I550
tp417
a(I1567
I550
tp418
a(I1568
I550
tp419
a(I1569
I550
tp420
a(I1570
I550
tp421
a(I1571
I550
tp422
a(I1572
I550
tp423
a(I1573
I550
tp424
a(I1574
I550
tp425
a(I1575
I550
tp426
a(I1576
I550
tp427
a(I1577
I550
tp428
a(I1578
I550
tp429
a(I1579
I550
tp430
a(I1580
I550
tp431
a(I1581
I550
tp432
a(I1582
I550
tp433
a(I1583
I550
tp434
a(I1584
I550
tp435
a(I1585
I550
tp436
a(I1586
I550
tp437
a(I1587
I550
tp438
a(I1588
I550
tp439
a(I1589
I550
tp440
a(I1590
I550
tp441
a(I1591
I550
tp442
a(I1592
I550
tp443
a(I1593
I550
tp444
a(I1594
I550
tp445
a(I1595
I550
tp446
a(I1596
I550
tp447
a(I1597
I550
tp448
a(I1598
I550
tp449
a(I1599
I550
tp450
a(I1600
I550
tp451
a(I1601
I550
tp452
a(I1602
I550
tp453
a(I1603
I550
tp454
a(I1604
I550
tp455
a(I1605
I550
tp456
a(I1606
I550
tp457
a(I1607
I550
tp458
a(I1608
I550
tp459
a(I1609
I550
tp460
a(I1610
I550
tp461
a(I1611
I550
tp462
a(I1612
I550
tp463
a(I1613
I550
tp464
a(I1614
I550
tp465
a(I1615
I550
tp466
a(I1616
I550
tp467
a(I1617
I550
tp468
a(I1618
I550
tp469
a(I1619
I550
tp470
a(I1620
I550
tp471
a(I1621
I550
tp472
a(I1622
I550
tp473
a(I1623
I550
tp474
a(I1624
I550
tp475
a(I1625
I550
tp476
a(I1626
I550
tp477
a(I1627
I550
tp478
a(I1628
I550
tp479
a(I1629
I550
tp480
a(I1630
I550
tp481
a(I1631
I550
tp482
a(I1632
I550
tp483
a(I1633
I550
tp484
a(I1634
I550
tp485
a(I1635
I550
tp486
a(I1636
I550
tp487
a(I1637
I550
tp488
a(I1638
I550
tp489
a(I1639
I550
tp490
a(I1640
I550
tp491
a(I1641
I550
tp492
a(I1642
I550
tp493
a(I1643
I550
tp494
a(I1644
I550
tp495
a(I1645
I550
tp496
a(I1646
I550
tp497
a(I1647
I550
tp498
a(I1648
I550
tp499
a(I1649
I550
tp500
a(I1650
I550
tp501
a(I1651
I550
tp502
a(I1652
I550
tp503
a(I1653
I550
tp504
a(I1654
I550
tp505
a(I1655
I550
tp506
a(I1656
I550
tp507
a(I1657
I550
tp508
a(I1658
I550
tp509
a(I1659
I550
tp510
a(I1660
I550
tp511
a(I1661
I550
tp512
a(I1662
I550
tp513
a(I1663
I550
tp514
a(I1664
I550
tp515
a(I1665
I550
tp516
a(I1666
I550
tp517
a(I1667
I550
tp518
a(I1668
I550
tp519
a(I1669
I550
tp520
a(I1670
I550
tp521
a(I1671
I550
tp522
a(I1672
I550
tp523
a(I1673
I550
tp524
a(I1674
I550
tp525
a(I1675
I550
tp526
a(I1676
I550
tp527
a(I1677
I550
tp528
a(I1678
I550
tp529
a(I1679
I550
tp530
a(I1680
I550
tp531
a(I1681
I550
tp532
a(I1682
I550
tp533
a(I1683
I550
tp534
a(I1684
I550
tp535
a(I1685
I550
tp536
a(I1686
I550
tp537
a(I1687
I550
tp538
a(I1688
I550
tp539
a(I1689
I550
tp540
a(I1690
I550
tp541
a(I1691
I550
tp542
a(I1692
I550
tp543
a(I1693
I550
tp544
a(I1694
I550
tp545
a(I1695
I550
tp546
a(I1696
I550
tp547
a(I1697
I550
tp548
a(I1698
I550
tp549
a(I1699
I550
tp550
a(I1700
I550
tp551
a(I1701
I550
tp552
a(I1702
I550
tp553
a(I1703
I550
tp554
a(I1704
I550
tp555
a(I1705
I550
tp556
a(I1706
I550
tp557
a(I1707
I550
tp558
a(I1708
I550
tp559
a(I1709
I550
tp560
a(I1710
I550
tp561
a(I1711
I550
tp562
a(I1712
I550
tp563
a(I1713
I550
tp564
a(I1714
I550
tp565
a(I1715
I550
tp566
a(I1716
I550
tp567
a(I1717
I550
tp568
a(I1718
I550
tp569
a(I1719
I550
tp570
a(I1720
I550
tp571
a(I1721
I550
tp572
a(I1722
I550
tp573
a(I1723
I550
tp574
a(I1724
I550
tp575
a(I1725
I550
tp576
a(I1726
I550
tp577
a(I1727
I550
tp578
a(I1728
I550
tp579
a(I1729
I550
tp580
a(I1730
I550
tp581
a(I1731
I550
tp582
a(I1732
I550
tp583
a(I1733
I550
tp584
a(I1734
I550
tp585
a(I1735
I550
tp586
a(I1736
I550
tp587
a(I1737
I550
tp588
a(I1738
I550
tp589
a(I1739
I550
tp590
a(I1740
I550
tp591
a(I1741
I550
tp592
a(I1742
I550
tp593
a(I1743
I550
tp594
a(I1744
I550
tp595
a(I1745
I550
tp596
a(I1746
I550
tp597
a(I1747
I550
tp598
a(I1748
I550
tp599
a(I1749
I550
tp600
a(I1750
I550
tp601
a(I1751
I550
tp602
a(I1752
I550
tp603
a(I1753
I550
tp604
a(I1754
I550
tp605
a(I1755
I550
tp606
a(I1756
I550
tp607
a(I1757
I550
tp608
a(I1758
I550
tp609
a(I1759
I550
tp610
a(I1760
I550
tp611
a(I1761
I550
tp612
a(I1762
I550
tp613
a(I1763
I550
tp614
a(I1764
I550
tp615
a(I1765
I550
tp616
a(I1766
I550
tp617
a(I1767
I550
tp618
a(I1768
I550
tp619
a(I1769
I550
tp620
a(I1770
I550
tp621
a(I1771
I550
tp622
a(I1772
I550
tp623
a(I1773
I550
tp624
a(I1774
I550
tp625
a(I1775
I550
tp626
a(I1776
I550
tp627
a(I1777
I550
tp628
a(I1778
I550
tp629
a(I1779
I550
tp630
a(I1780
I550
tp631
a(I1781
I550
tp632
a(I1782
I550
tp633
a(I1783
I550
tp634
a(I1784
I550
tp635
a(I1785
I550
tp636
a(I1786
I550
tp637
a(I1787
I550
tp638
a(I1788
I550
tp639
a(I1789
I550
tp640
a(I1790
I550
tp641
a(I1791
I550
tp642
a(I1792
I550
tp643
a(I1793
I550
tp644
a(I1794
I550
tp645
a(I1795
I550
tp646
a(I1796
I550
tp647
a(I1797
I550
tp648
a(I1798
I550
tp649
a(I1799
I550
tp650
a(I1800
I550
tp651
a(I1801
I550
tp652
a(I1802
I550
tp653
a(I1803
I550
tp654
a(I1804
I550
tp655
a(I1805
I550
tp656
a(I1806
I550
tp657
a(I1807
I550
tp658
a(I1808
I550
tp659
a(I1809
I550
tp660
a(I1810
I550
tp661
a(I1811
I550
tp662
a(I1812
I550
tp663
a(I1813
I550
tp664
a(I1814
I550
tp665
a(I1815
I550
tp666
a(I1816
I550
tp667
a(I1817
I550
tp668
a(I1818
I550
tp669
a(I1819
I550
tp670
a(I1820
I550
tp671
a(I1821
I550
tp672
a(I1822
I550
tp673
a(I1823
I550
tp674
a(I1824
I550
tp675
a(I1825
I550
tp676
a(I1826
I550
tp677
a(I1827
I550
tp678
a(I1828
I550
tp679
a(I1829
I550
tp680
a(I1830
I550
tp681
a(I1831
I550
tp682
a(I1832
I550
tp683
a(I1833
I550
tp684
a(I1834
I550
tp685
a(I1835
I550
tp686
a(I1836
I550
tp687
a(I1837
I550
tp688
a(I1838
I550
tp689
a(I1839
I550
tp690
a(I1840
I550
tp691
a(I1841
I550
tp692
a(I1842
I550
tp693
a(I1843
I550
tp694
a(I1844
I550
tp695
a(I1845
I550
tp696
a(I1846
I550
tp697
a(I1847
I550
tp698
a(I1848
I550
tp699
a(I1849
I550
tp700
a(I1850
I550
tp701
a(I1851
I550
tp702
a(I1852
I550
tp703
a(I1853
I550
tp704
a(I1854
I550
tp705
a(I1855
I550
tp706
a(I1856
I550
tp707
a(I1857
I550
tp708
a(I1858
I550
tp709
a(I1859
I550
tp710
a(I1860
I550
tp711
a(I1861
I550
tp712
a(I1862
I550
tp713
a(I1863
I550
tp714
a(I1864
I550
tp715
a(I1865
I550
tp716
a(I1866
I550
tp717
a(I1867
I550
tp718
a(I1868
I550
tp719
a(I1869
I550
tp720
a(I1870
I550
tp721
a(I1871
I550
tp722
a(I1872
I550
tp723
a(I1873
I550
tp724
a(I1874
I550
tp725
a(I1875
I550
tp726
a(I1876
I550
tp727
a(I1877
I550
tp728
a(I1878
I550
tp729
a(I1879
I550
tp730
a(I1880
I550
tp731
a(I1881
I550
tp732
a(I1882
I550
tp733
a(I1883
I550
tp734
a(I1884
I550
tp735
a(I1885
I550
tp736
a(I1886
I550
tp737
a(I1887
I550
tp738
a(I1888
I550
tp739
a(I1889
I550
tp740
a(I1890
I550
tp741
a(I1891
I550
tp742
a(I1892
I550
tp743
a(I1893
I550
tp744
a(I1894
I550
tp745
a(I1895
I550
tp746
a(I1896
I550
tp747
a(I1897
I550
tp748
a(I1898
I550
tp749
a(I1899
I550
tp750
a(I1900
I550
tp751
a(I1901
I550
tp752
a(I1902
I550
tp753
a(I1903
I550
tp754
a(I1904
I550
tp755
a(I1905
I550
tp756
a(I1906
I550
tp757
a(I1907
I550
tp758
a(I1908
I550
tp759
a(I1909
I550
tp760
a(I1910
I550
tp761
a(I1911
I550
tp762
a(I1912
I550
tp763
a(I1913
I550
tp764
a(I1914
I550
tp765
a(I1915
I550
tp766
a(I1916
I550
tp767
a(I1917
I550
tp768
a(I1918
I550
tp769
a(I1919
I550
tp770
a(I1920
I550
tp771
a(I1921
I550
tp772
a(I1922
I550
tp773
a(I1923
I550
tp774
a(I1924
I550
tp775
a(I1925
I550
tp776
a(I1926
I550
tp777
a(I1927
I550
tp778
a(I1928
I550
tp779
a(I1929
I550
tp780
a(I1930
I550
tp781
a(I1931
I550
tp782
a(I1932
I550
tp783
a(I1933
I550
tp784
a(I1934
I550
tp785
a(I1935
I550
tp786
a(I1936
I550
tp787
a(I1937
I550
tp788
a(I1938
I550
tp789
a(I1939
I550
tp790
a(I1940
I550
tp791
a(I1941
I550
tp792
a(I1942
I550
tp793
a(I1943
I550
tp794
a(I1944
I550
tp795
a(I1945
I550
tp796
a(I1946
I550
tp797
a(I1947
I550
tp798
a(I1948
I550
tp799
a(I1949
I550
tp800
a(I1950
I550
tp801
a(I1951
I550
tp802
a(I1952
I550
tp803
a(I1953
I550
tp804
a(I1954
I550
tp805
a(I1955
I550
tp806
a(I1956
I550
tp807
a(I1957
I550
tp808
a(I1958
I550
tp809
a(I1959
I550
tp810
a(I1960
I550
tp811
a(I1961
I550
tp812
a(I1962
I550
tp813
a(I1963
I550
tp814
a(I1964
I550
tp815
a(I1965
I550
tp816
a(I1966
I550
tp817
a(I1967
I550
tp818
a(I1968
I550
tp819
a(I1969
I550
tp820
a(I1970
I550
tp821
a(I1971
I550
tp822
a(I1972
I550
tp823
a(I1973
I550
tp824
a(I1974
I550
tp825
a(I1975
I550
tp826
a(I1976
I550
tp827
a(I1977
I550
tp828
a(I1978
I550
tp829
a(I1150
I551
tp830
a(I1150
I552
tp831
a(I1150
I553
tp832
a(I1150
I554
tp833
a(I1150
I555
tp834
a(I1150
I556
tp835
a(I1150
I557
tp836
a(I1150
I558
tp837
a(I1150
I559
tp838
a(I1150
I560
tp839
a(I1150
I561
tp840
a(I1150
I562
tp841
a(I1150
I563
tp842
a(I1150
I564
tp843
a(I1150
I565
tp844
a(I1150
I566
tp845
a(I1150
I567
tp846
a(I1150
I568
tp847
a(I1150
I569
tp848
a(I1150
I570
tp849
a(I1150
I571
tp850
a(I1150
I572
tp851
a(I1150
I573
tp852
a(I1150
I574
tp853
a(I1150
I575
tp854
a(I1150
I576
tp855
a(I1150
I577
tp856
a(I1150
I578
tp857
a(I1150
I579
tp858
a(I1150
I580
tp859
a(I1150
I581
tp860
a(I1150
I582
tp861
a(I1150
I583
tp862
a(I1150
I584
tp863
a(I1150
I585
tp864
a(I1150
I586
tp865
a(I1150
I587
tp866
a(I1150
I588
tp867
a(I1150
I589
tp868
a(I1150
I590
tp869
a(I1150
I591
tp870
a(I1150
I592
tp871
a(I1150
I593
tp872
a(I1150
I594
tp873
a(I1150
I595
tp874
a(I1150
I596
tp875
a(I1150
I597
tp876
a(I1150
I598
tp877
a(I1150
I599
tp878
a(I1150
I600
tp879
a(I1150
I601
tp880
a(I1150
I602
tp881
a(I1150
I603
tp882
a(I1150
I604
tp883
a(I1150
I605
tp884
a(I1150
I606
tp885
a(I1150
I607
tp886
a(I1150
I608
tp887
a(I1150
I609
tp888
a(I1150
I610
tp889
a(I1150
I611
tp890
a(I1150
I612
tp891
a(I1150
I613
tp892
a(I1150
I614
tp893
a(I1150
I615
tp894
a(I1150
I616
tp895
a(I1150
I617
tp896
a(I1150
I618
tp897
a(I1150
I619
tp898
a(I1150
I620
tp899
a(I1150
I621
tp900
a(I1150
I622
tp901
a(I1150
I623
tp902
a(I1150
I624
tp903
a(I1150
I625
tp904
a(I1150
I626
tp905
a(I1150
I627
tp906
a(I1150
I628
tp907
a(I1150
I629
tp908
a(I1150
I630
tp909
a(I1150
I631
tp910
a(I0
I632
tp911
a(I1
I632
tp912
a(I2
I632
tp913
a(I3
I632
tp914
a(I4
I632
tp915
a(I5
I632
tp916
a(I6
I632
tp917
a(I7
I632
tp918
a(I8
I632
tp919
a(I9
I632
tp920
a(I10
I632
tp921
a(I11
I632
tp922
a(I12
I632
tp923
a(I13
I632
tp924
a(I14
I632
tp925
a(I15
I632
tp926
a(I16
I632
tp927
a(I17
I632
tp928
a(I18
I632
tp929
a(I19
I632
tp930
a(I20
I632
tp931
a(I21
I632
tp932
a(I22
I632
tp933
a(I23
I632
tp934
a(I24
I632
tp935
a(I25
I632
tp936
a(I26
I632
tp937
a(I27
I632
tp938
a(I28
I632
tp939
a(I29
I632
tp940
a(I30
I632
tp941
a(I31
I632
tp942
a(I32
I632
tp943
a(I33
I632
tp944
a(I34
I632
tp945
a(I35
I632
tp946
a(I36
I632
tp947
a(I37
I632
tp948
a(I38
I632
tp949
a(I39
I632
tp950
a(I40
I632
tp951
a(I41
I632
tp952
a(I42
I632
tp953
a(I43
I632
tp954
a(I44
I632
tp955
a(I45
I632
tp956
a(I46
I632
tp957
a(I47
I632
tp958
a(I48
I632
tp959
a(I49
I632
tp960
a(I50
I632
tp961
a(I51
I632
tp962
a(I52
I632
tp963
a(I53
I632
tp964
a(I54
I632
tp965
a(I55
I632
tp966
a(I56
I632
tp967
a(I57
I632
tp968
a(I58
I632
tp969
a(I59
I632
tp970
a(I60
I632
tp971
a(I61
I632
tp972
a(I62
I632
tp973
a(I63
I632
tp974
a(I64
I632
tp975
a(I65
I632
tp976
a(I66
I632
tp977
a(I67
I632
tp978
a(I68
I632
tp979
a(I69
I632
tp980
a(I70
I632
tp981
a(I71
I632
tp982
a(I72
I632
tp983
a(I73
I632
tp984
a(I74
I632
tp985
a(I75
I632
tp986
a(I76
I632
tp987
a(I77
I632
tp988
a(I78
I632
tp989
a(I79
I632
tp990
a(I80
I632
tp991
a(I81
I632
tp992
a(I82
I632
tp993
a(I83
I632
tp994
a(I84
I632
tp995
a(I85
I632
tp996
a(I86
I632
tp997
a(I87
I632
tp998
a(I88
I632
tp999
a(I89
I632
tp1000
a(I90
I632
tp1001
a(I91
I632
tp1002
a(I92
I632
tp1003
a(I93
I632
tp1004
a(I94
I632
tp1005
a(I95
I632
tp1006
a(I96
I632
tp1007
a(I97
I632
tp1008
a(I98
I632
tp1009
a(I99
I632
tp1010
a(I100
I632
tp1011
a(I101
I632
tp1012
a(I102
I632
tp1013
a(I103
I632
tp1014
a(I104
I632
tp1015
a(I105
I632
tp1016
a(I106
I632
tp1017
a(I107
I632
tp1018
a(I108
I632
tp1019
a(I109
I632
tp1020
a(I110
I632
tp1021
a(I111
I632
tp1022
a(I112
I632
tp1023
a(I113
I632
tp1024
a(I114
I632
tp1025
a(I115
I632
tp1026
a(I116
I632
tp1027
a(I117
I632
tp1028
a(I118
I632
tp1029
a(I119
I632
tp1030
a(I120
I632
tp1031
a(I121
I632
tp1032
a(I122
I632
tp1033
a(I123
I632
tp1034
a(I124
I632
tp1035
a(I125
I632
tp1036
a(I126
I632
tp1037
a(I127
I632
tp1038
a(I128
I632
tp1039
a(I129
I632
tp1040
a(I130
I632
tp1041
a(I131
I632
tp1042
a(I132
I632
tp1043
a(I133
I632
tp1044
a(I134
I632
tp1045
a(I135
I632
tp1046
a(I136
I632
tp1047
a(I137
I632
tp1048
a(I138
I632
tp1049
a(I139
I632
tp1050
a(I140
I632
tp1051
a(I141
I632
tp1052
a(I142
I632
tp1053
a(I143
I632
tp1054
a(I144
I632
tp1055
a(I145
I632
tp1056
a(I146
I632
tp1057
a(I147
I632
tp1058
a(I148
I632
tp1059
a(I149
I632
tp1060
a(I150
I632
tp1061
a(I151
I632
tp1062
a(I152
I632
tp1063
a(I153
I632
tp1064
a(I154
I632
tp1065
a(I155
I632
tp1066
a(I156
I632
tp1067
a(I157
I632
tp1068
a(I158
I632
tp1069
a(I159
I632
tp1070
a(I160
I632
tp1071
a(I161
I632
tp1072
a(I162
I632
tp1073
a(I163
I632
tp1074
a(I164
I632
tp1075
a(I165
I632
tp1076
a(I166
I632
tp1077
a(I167
I632
tp1078
a(I168
I632
tp1079
a(I169
I632
tp1080
a(I170
I632
tp1081
a(I171
I632
tp1082
a(I172
I632
tp1083
a(I173
I632
tp1084
a(I174
I632
tp1085
a(I175
I632
tp1086
a(I176
I632
tp1087
a(I177
I632
tp1088
a(I178
I632
tp1089
a(I179
I632
tp1090
a(I180
I632
tp1091
a(I181
I632
tp1092
a(I182
I632
tp1093
a(I183
I632
tp1094
a(I184
I632
tp1095
a(I185
I632
tp1096
a(I186
I632
tp1097
a(I187
I632
tp1098
a(I188
I632
tp1099
a(I189
I632
tp1100
a(I190
I632
tp1101
a(I191
I632
tp1102
a(I192
I632
tp1103
a(I193
I632
tp1104
a(I194
I632
tp1105
a(I195
I632
tp1106
a(I196
I632
tp1107
a(I197
I632
tp1108
a(I198
I632
tp1109
a(I199
I632
tp1110
a(I200
I632
tp1111
a(I201
I632
tp1112
a(I202
I632
tp1113
a(I203
I632
tp1114
a(I204
I632
tp1115
a(I205
I632
tp1116
a(I206
I632
tp1117
a(I207
I632
tp1118
a(I208
I632
tp1119
a(I209
I632
tp1120
a(I210
I632
tp1121
a(I211
I632
tp1122
a(I212
I632
tp1123
a(I213
I632
tp1124
a(I214
I632
tp1125
a(I215
I632
tp1126
a(I216
I632
tp1127
a(I217
I632
tp1128
a(I218
I632
tp1129
a(I219
I632
tp1130
a(I220
I632
tp1131
a(I221
I632
tp1132
a(I222
I632
tp1133
a(I223
I632
tp1134
a(I224
I632
tp1135
a(I225
I632
tp1136
a(I226
I632
tp1137
a(I227
I632
tp1138
a(I228
I632
tp1139
a(I229
I632
tp1140
a(I230
I632
tp1141
a(I231
I632
tp1142
a(I232
I632
tp1143
a(I233
I632
tp1144
a(I234
I632
tp1145
a(I235
I632
tp1146
a(I236
I632
tp1147
a(I237
I632
tp1148
a(I238
I632
tp1149
a(I239
I632
tp1150
a(I240
I632
tp1151
a(I241
I632
tp1152
a(I242
I632
tp1153
a(I243
I632
tp1154
a(I244
I632
tp1155
a(I245
I632
tp1156
a(I246
I632
tp1157
a(I247
I632
tp1158
a(I248
I632
tp1159
a(I249
I632
tp1160
a(I250
I632
tp1161
a(I251
I632
tp1162
a(I252
I632
tp1163
a(I253
I632
tp1164
a(I254
I632
tp1165
a(I255
I632
tp1166
a(I256
I632
tp1167
a(I257
I632
tp1168
a(I258
I632
tp1169
a(I259
I632
tp1170
a(I260
I632
tp1171
a(I261
I632
tp1172
a(I262
I632
tp1173
a(I263
I632
tp1174
a(I264
I632
tp1175
a(I265
I632
tp1176
a(I266
I632
tp1177
a(I267
I632
tp1178
a(I268
I632
tp1179
a(I269
I632
tp1180
a(I270
I632
tp1181
a(I271
I632
tp1182
a(I272
I632
tp1183
a(I273
I632
tp1184
a(I274
I632
tp1185
a(I275
I632
tp1186
a(I276
I632
tp1187
a(I277
I632
tp1188
a(I278
I632
tp1189
a(I279
I632
tp1190
a(I280
I632
tp1191
a(I281
I632
tp1192
a(I282
I632
tp1193
a(I283
I632
tp1194
a(I284
I632
tp1195
a(I285
I632
tp1196
a(I286
I632
tp1197
a(I287
I632
tp1198
a(I288
I632
tp1199
a(I289
I632
tp1200
a(I290
I632
tp1201
a(I291
I632
tp1202
a(I292
I632
tp1203
a(I293
I632
tp1204
a(I294
I632
tp1205
a(I295
I632
tp1206
a(I296
I632
tp1207
a(I297
I632
tp1208
a(I298
I632
tp1209
a(I299
I632
tp1210
a(I300
I632
tp1211
a(I301
I632
tp1212
a(I302
I632
tp1213
a(I303
I632
tp1214
a(I304
I632
tp1215
a(I305
I632
tp1216
a(I306
I632
tp1217
a(I307
I632
tp1218
a(I308
I632
tp1219
a(I309
I632
tp1220
a(I310
I632
tp1221
a(I311
I632
tp1222
a(I312
I632
tp1223
a(I313
I632
tp1224
a(I314
I632
tp1225
a(I315
I632
tp1226
a(I316
I632
tp1227
a(I317
I632
tp1228
a(I318
I632
tp1229
a(I319
I632
tp1230
a(I320
I632
tp1231
a(I321
I632
tp1232
a(I322
I632
tp1233
a(I323
I632
tp1234
a(I324
I632
tp1235
a(I325
I632
tp1236
a(I326
I632
tp1237
a(I327
I632
tp1238
a(I328
I632
tp1239
a(I329
I632
tp1240
a(I330
I632
tp1241
a(I331
I632
tp1242
a(I332
I632
tp1243
a(I333
I632
tp1244
a(I334
I632
tp1245
a(I335
I632
tp1246
a(I336
I632
tp1247
a(I337
I632
tp1248
a(I338
I632
tp1249
a(I339
I632
tp1250
a(I340
I632
tp1251
a(I341
I632
tp1252
a(I342
I632
tp1253
a(I343
I632
tp1254
a(I344
I632
tp1255
a(I345
I632
tp1256
a(I346
I632
tp1257
a(I347
I632
tp1258
a(I348
I632
tp1259
a(I349
I632
tp1260
a(I350
I632
tp1261
a(I351
I632
tp1262
a(I352
I632
tp1263
a(I353
I632
tp1264
a(I354
I632
tp1265
a(I355
I632
tp1266
a(I356
I632
tp1267
a(I357
I632
tp1268
a(I358
I632
tp1269
a(I359
I632
tp1270
a(I360
I632
tp1271
a(I361
I632
tp1272
a(I362
I632
tp1273
a(I363
I632
tp1274
a(I364
I632
tp1275
a(I365
I632
tp1276
a(I366
I632
tp1277
a(I367
I632
tp1278
a(I368
I632
tp1279
a(I369
I632
tp1280
a(I370
I632
tp1281
a(I371
I632
tp1282
a(I372
I632
tp1283
a(I373
I632
tp1284
a(I374
I632
tp1285
a(I375
I632
tp1286
a(I376
I632
tp1287
a(I377
I632
tp1288
a(I378
I632
tp1289
a(I379
I632
tp1290
a(I380
I632
tp1291
a(I381
I632
tp1292
a(I382
I632
tp1293
a(I383
I632
tp1294
a(I384
I632
tp1295
a(I385
I632
tp1296
a(I386
I632
tp1297
a(I387
I632
tp1298
a(I388
I632
tp1299
a(I389
I632
tp1300
a(I390
I632
tp1301
a(I391
I632
tp1302
a(I392
I632
tp1303
a(I393
I632
tp1304
a(I394
I632
tp1305
a(I395
I632
tp1306
a(I396
I632
tp1307
a(I397
I632
tp1308
a(I398
I632
tp1309
a(I399
I632
tp1310
a(I400
I632
tp1311
a(I401
I632
tp1312
a(I402
I632
tp1313
a(I403
I632
tp1314
a(I404
I632
tp1315
a(I405
I632
tp1316
a(I406
I632
tp1317
a(I407
I632
tp1318
a(I408
I632
tp1319
a(I409
I632
tp1320
a(I410
I632
tp1321
a(I411
I632
tp1322
a(I412
I632
tp1323
a(I413
I632
tp1324
a(I414
I632
tp1325
a(I415
I632
tp1326
a(I416
I632
tp1327
a(I417
I632
tp1328
a(I418
I632
tp1329
a(I419
I632
tp1330
a(I420
I632
tp1331
a(I421
I632
tp1332
a(I422
I632
tp1333
a(I423
I632
tp1334
a(I424
I632
tp1335
a(I425
I632
tp1336
a(I426
I632
tp1337
a(I427
I632
tp1338
a(I428
I632
tp1339
a(I429
I632
tp1340
a(I430
I632
tp1341
a(I431
I632
tp1342
a(I432
I632
tp1343
a(I433
I632
tp1344
a(I434
I632
tp1345
a(I435
I632
tp1346
a(I436
I632
tp1347
a(I437
I632
tp1348
a(I438
I632
tp1349
a(I439
I632
tp1350
a(I440
I632
tp1351
a(I441
I632
tp1352
a(I442
I632
tp1353
a(I443
I632
tp1354
a(I444
I632
tp1355
a(I445
I632
tp1356
a(I446
I632
tp1357
a(I447
I632
tp1358
a(I448
I632
tp1359
a(I449
I632
tp1360
a(I450
I632
tp1361
a(I451
I632
tp1362
a(I452
I632
tp1363
a(I453
I632
tp1364
a(I454
I632
tp1365
a(I455
I632
tp1366
a(I456
I632
tp1367
a(I457
I632
tp1368
a(I458
I632
tp1369
a(I459
I632
tp1370
a(I460
I632
tp1371
a(I461
I632
tp1372
a(I462
I632
tp1373
a(I463
I632
tp1374
a(I464
I632
tp1375
a(I465
I632
tp1376
a(I466
I632
tp1377
a(I467
I632
tp1378
a(I468
I632
tp1379
a(I469
I632
tp1380
a(I470
I632
tp1381
a(I471
I632
tp1382
a(I472
I632
tp1383
a(I473
I632
tp1384
a(I474
I632
tp1385
a(I475
I632
tp1386
a(I476
I632
tp1387
a(I477
I632
tp1388
a(I478
I632
tp1389
a(I479
I632
tp1390
a(I480
I632
tp1391
a(I481
I632
tp1392
a(I482
I632
tp1393
a(I483
I632
tp1394
a(I484
I632
tp1395
a(I485
I632
tp1396
a(I486
I632
tp1397
a(I487
I632
tp1398
a(I488
I632
tp1399
a(I489
I632
tp1400
a(I490
I632
tp1401
a(I491
I632
tp1402
a(I492
I632
tp1403
a(I493
I632
tp1404
a(I494
I632
tp1405
a(I495
I632
tp1406
a(I496
I632
tp1407
a(I497
I632
tp1408
a(I498
I632
tp1409
a(I499
I632
tp1410
a(I500
I632
tp1411
a(I501
I632
tp1412
a(I502
I632
tp1413
a(I503
I632
tp1414
a(I504
I632
tp1415
a(I505
I632
tp1416
a(I506
I632
tp1417
a(I507
I632
tp1418
a(I508
I632
tp1419
a(I509
I632
tp1420
a(I510
I632
tp1421
a(I511
I632
tp1422
a(I512
I632
tp1423
a(I513
I632
tp1424
a(I514
I632
tp1425
a(I515
I632
tp1426
a(I516
I632
tp1427
a(I517
I632
tp1428
a(I518
I632
tp1429
a(I519
I632
tp1430
a(I520
I632
tp1431
a(I521
I632
tp1432
a(I522
I632
tp1433
a(I523
I632
tp1434
a(I524
I632
tp1435
a(I525
I632
tp1436
a(I526
I632
tp1437
a(I527
I632
tp1438
a(I528
I632
tp1439
a(I529
I632
tp1440
a(I530
I632
tp1441
a(I531
I632
tp1442
a(I532
I632
tp1443
a(I533
I632
tp1444
a(I534
I632
tp1445
a(I535
I632
tp1446
a(I536
I632
tp1447
a(I537
I632
tp1448
a(I538
I632
tp1449
a(I539
I632
tp1450
a(I540
I632
tp1451
a(I541
I632
tp1452
a(I542
I632
tp1453
a(I543
I632
tp1454
a(I544
I632
tp1455
a(I545
I632
tp1456
a(I546
I632
tp1457
a(I547
I632
tp1458
a(I548
I632
tp1459
a(I549
I632
tp1460
a(I550
I632
tp1461
a(I551
I632
tp1462
a(I552
I632
tp1463
a(I553
I632
tp1464
a(I554
I632
tp1465
a(I555
I632
tp1466
a(I556
I632
tp1467
a(I557
I632
tp1468
a(I558
I632
tp1469
a(I559
I632
tp1470
a(I560
I632
tp1471
a(I561
I632
tp1472
a(I562
I632
tp1473
a(I563
I632
tp1474
a(I564
I632
tp1475
a(I565
I632
tp1476
a(I566
I632
tp1477
a(I567
I632
tp1478
a(I568
I632
tp1479
a(I569
I632
tp1480
a(I570
I632
tp1481
a(I571
I632
tp1482
a(I572
I632
tp1483
a(I573
I632
tp1484
a(I574
I632
tp1485
a(I575
I632
tp1486
a(I576
I632
tp1487
a(I577
I632
tp1488
a(I578
I632
tp1489
a(I579
I632
tp1490
a(I580
I632
tp1491
a(I581
I632
tp1492
a(I582
I632
tp1493
a(I583
I632
tp1494
a(I584
I632
tp1495
a(I585
I632
tp1496
a(I586
I632
tp1497
a(I587
I632
tp1498
a(I588
I632
tp1499
a(I589
I632
tp1500
a(I590
I632
tp1501
a(I591
I632
tp1502
a(I592
I632
tp1503
a(I593
I632
tp1504
a(I594
I632
tp1505
a(I595
I632
tp1506
a(I596
I632
tp1507
a(I597
I632
tp1508
a(I598
I632
tp1509
a(I599
I632
tp1510
a(I600
I632
tp1511
a(I601
I632
tp1512
a(I602
I632
tp1513
a(I603
I632
tp1514
a(I604
I632
tp1515
a(I605
I632
tp1516
a(I606
I632
tp1517
a(I607
I632
tp1518
a(I608
I632
tp1519
a(I609
I632
tp1520
a(I610
I632
tp1521
a(I611
I632
tp1522
a(I612
I632
tp1523
a(I613
I632
tp1524
a(I614
I632
tp1525
a(I615
I632
tp1526
a(I616
I632
tp1527
a(I617
I632
tp1528
a(I618
I632
tp1529
a(I619
I632
tp1530
a(I620
I632
tp1531
a(I621
I632
tp1532
a(I622
I632
tp1533
a(I623
I632
tp1534
a(I624
I632
tp1535
a(I625
I632
tp1536
a(I626
I632
tp1537
a(I627
I632
tp1538
a(I628
I632
tp1539
a(I629
I632
tp1540
a(I630
I632
tp1541
a(I631
I632
tp1542
a(I632
I632
tp1543
a(I633
I632
tp1544
a(I634
I632
tp1545
a(I635
I632
tp1546
a(I636
I632
tp1547
a(I637
I632
tp1548
a(I638
I632
tp1549
a(I639
I632
tp1550
a(I640
I632
tp1551
a(I641
I632
tp1552
a(I642
I632
tp1553
a(I643
I632
tp1554
a(I644
I632
tp1555
a(I645
I632
tp1556
a(I646
I632
tp1557
a(I647
I632
tp1558
a(I648
I632
tp1559
a(I649
I632
tp1560
a(I650
I632
tp1561
a(I651
I632
tp1562
a(I652
I632
tp1563
a(I653
I632
tp1564
a(I654
I632
tp1565
a(I655
I632
tp1566
a(I656
I632
tp1567
a(I657
I632
tp1568
a(I658
I632
tp1569
a(I659
I632
tp1570
a(I660
I632
tp1571
a(I661
I632
tp1572
a(I662
I632
tp1573
a(I663
I632
tp1574
a(I664
I632
tp1575
a(I665
I632
tp1576
a(I666
I632
tp1577
a(I667
I632
tp1578
a(I668
I632
tp1579
a(I669
I632
tp1580
a(I670
I632
tp1581
a(I671
I632
tp1582
a(I672
I632
tp1583
a(I673
I632
tp1584
a(I674
I632
tp1585
a(I675
I632
tp1586
a(I676
I632
tp1587
a(I677
I632
tp1588
a(I678
I632
tp1589
a(I679
I632
tp1590
a(I680
I632
tp1591
a(I681
I632
tp1592
a(I682
I632
tp1593
a(I683
I632
tp1594
a(I684
I632
tp1595
a(I685
I632
tp1596
a(I686
I632
tp1597
a(I687
I632
tp1598
a(I688
I632
tp1599
a(I689
I632
tp1600
a(I690
I632
tp1601
a(I691
I632
tp1602
a(I692
I632
tp1603
a(I693
I632
tp1604
a(I694
I632
tp1605
a(I695
I632
tp1606
a(I696
I632
tp1607
a(I697
I632
tp1608
a(I698
I632
tp1609
a(I699
I632
tp1610
a(I700
I632
tp1611
a(I701
I632
tp1612
a(I702
I632
tp1613
a(I703
I632
tp1614
a(I704
I632
tp1615
a(I705
I632
tp1616
a(I706
I632
tp1617
a(I707
I632
tp1618
a(I708
I632
tp1619
a(I709
I632
tp1620
a(I710
I632
tp1621
a(I711
I632
tp1622
a(I712
I632
tp1623
a(I713
I632
tp1624
a(I714
I632
tp1625
a(I715
I632
tp1626
a(I716
I632
tp1627
a(I717
I632
tp1628
a(I718
I632
tp1629
a(I719
I632
tp1630
a(I720
I632
tp1631
a(I721
I632
tp1632
a(I722
I632
tp1633
a(I723
I632
tp1634
a(I724
I632
tp1635
a(I725
I632
tp1636
a(I726
I632
tp1637
a(I727
I632
tp1638
a(I728
I632
tp1639
a(I729
I632
tp1640
a(I730
I632
tp1641
a(I731
I632
tp1642
a(I732
I632
tp1643
a(I733
I632
tp1644
a(I734
I632
tp1645
a(I735
I632
tp1646
a(I736
I632
tp1647
a(I737
I632
tp1648
a(I738
I632
tp1649
a(I739
I632
tp1650
a(I740
I632
tp1651
a(I741
I632
tp1652
a(I742
I632
tp1653
a(I743
I632
tp1654
a(I744
I632
tp1655
a(I745
I632
tp1656
a(I746
I632
tp1657
a(I747
I632
tp1658
a(I748
I632
tp1659
a(I749
I632
tp1660
a(I750
I632
tp1661
a(I751
I632
tp1662
a(I752
I632
tp1663
a(I753
I632
tp1664
a(I754
I632
tp1665
a(I755
I632
tp1666
a(I756
I632
tp1667
a(I757
I632
tp1668
a(I758
I632
tp1669
a(I759
I632
tp1670
a(I760
I632
tp1671
a(I761
I632
tp1672
a(I762
I632
tp1673
a(I763
I632
tp1674
a(I764
I632
tp1675
a(I765
I632
tp1676
a(I766
I632
tp1677
a(I767
I632
tp1678
a(I768
I632
tp1679
a(I769
I632
tp1680
a(I770
I632
tp1681
a(I771
I632
tp1682
a(I772
I632
tp1683
a(I773
I632
tp1684
a(I774
I632
tp1685
a(I775
I632
tp1686
a(I776
I632
tp1687
a(I777
I632
tp1688
a(I778
I632
tp1689
a(I779
I632
tp1690
a(I780
I632
tp1691
a(I781
I632
tp1692
a(I782
I632
tp1693
a(I783
I632
tp1694
a(I784
I632
tp1695
a(I785
I632
tp1696
a(I786
I632
tp1697
a(I787
I632
tp1698
a(I788
I632
tp1699
a(I789
I632
tp1700
a(I790
I632
tp1701
a(I791
I632
tp1702
a(I792
I632
tp1703
a(I793
I632
tp1704
a(I794
I632
tp1705
a(I795
I632
tp1706
a(I796
I632
tp1707
a(I797
I632
tp1708
a(I798
I632
tp1709
a(I799
I632
tp1710
a(I800
I632
tp1711
a(I801
I632
tp1712
a(I802
I632
tp1713
a(I803
I632
tp1714
a(I804
I632
tp1715
a(I805
I632
tp1716
a(I806
I632
tp1717
a(I807
I632
tp1718
a(I808
I632
tp1719
a(I809
I632
tp1720
a(I810
I632
tp1721
a(I811
I632
tp1722
a(I812
I632
tp1723
a(I813
I632
tp1724
a(I814
I632
tp1725
a(I815
I632
tp1726
a(I816
I632
tp1727
a(I817
I632
tp1728
a(I818
I632
tp1729
a(I819
I632
tp1730
a(I820
I632
tp1731
a(I821
I632
tp1732
a(I822
I632
tp1733
a(I823
I632
tp1734
a(I824
I632
tp1735
a(I825
I632
tp1736
a(I826
I632
tp1737
a(I827
I632
tp1738
a(I828
I632
tp1739
a(I829
I632
tp1740
a(I830
I632
tp1741
a(I831
I632
tp1742
a(I832
I632
tp1743
a(I833
I632
tp1744
a(I834
I632
tp1745
a(I835
I632
tp1746
a(I836
I632
tp1747
a(I837
I632
tp1748
a(I838
I632
tp1749
a(I839
I632
tp1750
a(I840
I632
tp1751
a(I841
I632
tp1752
a(I842
I632
tp1753
a(I843
I632
tp1754
a(I844
I632
tp1755
a(I845
I632
tp1756
a(I846
I632
tp1757
a(I847
I632
tp1758
a(I848
I632
tp1759
a(I849
I632
tp1760
a(I850
I632
tp1761
a(I851
I632
tp1762
a(I852
I632
tp1763
a(I853
I632
tp1764
a(I854
I632
tp1765
a(I855
I632
tp1766
a(I856
I632
tp1767
a(I857
I632
tp1768
a(I858
I632
tp1769
a(I859
I632
tp1770
a(I860
I632
tp1771
a(I861
I632
tp1772
a(I862
I632
tp1773
a(I863
I632
tp1774
a(I864
I632
tp1775
a(I865
I632
tp1776
a(I866
I632
tp1777
a(I867
I632
tp1778
a(I868
I632
tp1779
a(I869
I632
tp1780
a(I870
I632
tp1781
a(I871
I632
tp1782
a(I872
I632
tp1783
a(I873
I632
tp1784
a(I874
I632
tp1785
a(I875
I632
tp1786
a(I876
I632
tp1787
a(I877
I632
tp1788
a(I878
I632
tp1789
a(I879
I632
tp1790
a(I880
I632
tp1791
a(I881
I632
tp1792
a(I882
I632
tp1793
a(I883
I632
tp1794
a(I884
I632
tp1795
a(I885
I632
tp1796
a(I886
I632
tp1797
a(I887
I632
tp1798
a(I888
I632
tp1799
a(I889
I632
tp1800
a(I890
I632
tp1801
a(I891
I632
tp1802
a(I892
I632
tp1803
a(I893
I632
tp1804
a(I894
I632
tp1805
a(I895
I632
tp1806
a(I896
I632
tp1807
a(I897
I632
tp1808
a(I898
I632
tp1809
a(I899
I632
tp1810
a(I900
I632
tp1811
a(I901
I632
tp1812
a(I902
I632
tp1813
a(I903
I632
tp1814
a(I904
I632
tp1815
a(I905
I632
tp1816
a(I906
I632
tp1817
a(I907
I632
tp1818
a(I908
I632
tp1819
a(I909
I632
tp1820
a(I910
I632
tp1821
a(I911
I632
tp1822
a(I912
I632
tp1823
a(I913
I632
tp1824
a(I914
I632
tp1825
a(I915
I632
tp1826
a(I916
I632
tp1827
a(I917
I632
tp1828
a(I918
I632
tp1829
a(I919
I632
tp1830
a(I920
I632
tp1831
a(I921
I632
tp1832
a(I922
I632
tp1833
a(I923
I632
tp1834
a(I924
I632
tp1835
a(I925
I632
tp1836
a(I926
I632
tp1837
a(I927
I632
tp1838
a(I928
I632
tp1839
a(I929
I632
tp1840
a(I930
I632
tp1841
a(I931
I632
tp1842
a(I932
I632
tp1843
a(I933
I632
tp1844
a(I934
I632
tp1845
a(I935
I632
tp1846
a(I936
I632
tp1847
a(I937
I632
tp1848
a(I938
I632
tp1849
a(I939
I632
tp1850
a(I940
I632
tp1851
a(I941
I632
tp1852
a(I942
I632
tp1853
a(I943
I632
tp1854
a(I944
I632
tp1855
a(I945
I632
tp1856
a(I946
I632
tp1857
a(I947
I632
tp1858
a(I948
I632
tp1859
a(I949
I632
tp1860
a(I950
I632
tp1861
a(I951
I632
tp1862
a(I952
I632
tp1863
a(I953
I632
tp1864
a(I954
I632
tp1865
a(I955
I632
tp1866
a(I956
I632
tp1867
a(I957
I632
tp1868
a(I958
I632
tp1869
a(I959
I632
tp1870
a(I960
I632
tp1871
a(I961
I632
tp1872
a(I962
I632
tp1873
a(I963
I632
tp1874
a(I964
I632
tp1875
a(I965
I632
tp1876
a(I966
I632
tp1877
a(I967
I632
tp1878
a(I968
I632
tp1879
a(I969
I632
tp1880
a(I970
I632
tp1881
a(I971
I632
tp1882
a(I972
I632
tp1883
a(I973
I632
tp1884
a(I974
I632
tp1885
a(I975
I632
tp1886
a(I976
I632
tp1887
a(I977
I632
tp1888
a(I978
I632
tp1889
a(I979
I632
tp1890
a(I980
I632
tp1891
a(I981
I632
tp1892
a(I982
I632
tp1893
a(I983
I632
tp1894
a(I984
I632
tp1895
a(I985
I632
tp1896
a(I986
I632
tp1897
a(I987
I632
tp1898
a(I988
I632
tp1899
a(I989
I632
tp1900
a(I990
I632
tp1901
a(I991
I632
tp1902
a(I992
I632
tp1903
a(I993
I632
tp1904
a(I994
I632
tp1905
a(I995
I632
tp1906
a(I996
I632
tp1907
a(I997
I632
tp1908
a(I998
I632
tp1909
a(I999
I632
tp1910
a(I1000
I632
tp1911
a(I1001
I632
tp1912
a(I1002
I632
tp1913
a(I1003
I632
tp1914
a(I1004
I632
tp1915
a(I1005
I632
tp1916
a(I1006
I632
tp1917
a(I1007
I632
tp1918
a(I1008
I632
tp1919
a(I1009
I632
tp1920
a(I1010
I632
tp1921
a(I1011
I632
tp1922
a(I1012
I632
tp1923
a(I1013
I632
tp1924
a(I1014
I632
tp1925
a(I1015
I632
tp1926
a(I1016
I632
tp1927
a(I1017
I632
tp1928
a(I1018
I632
tp1929
a(I1019
I632
tp1930
a(I1020
I632
tp1931
a(I1021
I632
tp1932
a(I1022
I632
tp1933
a(I1023
I632
tp1934
a(I1024
I632
tp1935
a(I1025
I632
tp1936
a(I1026
I632
tp1937
a(I1027
I632
tp1938
a(I1028
I632
tp1939
a(I1029
I632
tp1940
a(I1030
I632
tp1941
a(I1031
I632
tp1942
a(I1032
I632
tp1943
a(I1033
I632
tp1944
a(I1034
I632
tp1945
a(I1035
I632
tp1946
a(I1036
I632
tp1947
a(I1037
I632
tp1948
a(I1038
I632
tp1949
a(I1039
I632
tp1950
a(I1040
I632
tp1951
a(I1041
I632
tp1952
a(I1042
I632
tp1953
a(I1043
I632
tp1954
a(I1044
I632
tp1955
a(I1045
I632
tp1956
a(I1046
I632
tp1957
a(I1047
I632
tp1958
a(I1048
I632
tp1959
a(I1049
I632
tp1960
a(I1050
I632
tp1961
a(I1051
I632
tp1962
a(I1052
I632
tp1963
a(I1053
I632
tp1964
a(I1054
I632
tp1965
a(I1055
I632
tp1966
a(I1056
I632
tp1967
a(I1057
I632
tp1968
a(I1058
I632
tp1969
a(I1059
I632
tp1970
a(I1060
I632
tp1971
a(I1061
I632
tp1972
a(I1062
I632
tp1973
a(I1063
I632
tp1974
a(I1064
I632
tp1975
a(I1065
I632
tp1976
a(I1066
I632
tp1977
a(I1067
I632
tp1978
a(I1068
I632
tp1979
a(I1069
I632
tp1980
a(I1070
I632
tp1981
a(I1071
I632
tp1982
a(I1072
I632
tp1983
a(I1073
I632
tp1984
a(I1074
I632
tp1985
a(I1075
I632
tp1986
a(I1076
I632
tp1987
a(I1077
I632
tp1988
a(I1078
I632
tp1989
a(I1079
I632
tp1990
a(I1080
I632
tp1991
a(I1081
I632
tp1992
a(I1082
I632
tp1993
a(I1083
I632
tp1994
a(I1084
I632
tp1995
a(I1085
I632
tp1996
a(I1086
I632
tp1997
a(I1087
I632
tp1998
a(I1088
I632
tp1999
a(I1089
I632
tp2000
a(I1090
I632
tp2001
a(I1091
I632
tp2002
a(I1092
I632
tp2003
a(I1093
I632
tp2004
a(I1094
I632
tp2005
a(I1095
I632
tp2006
a(I1096
I632
tp2007
a(I1097
I632
tp2008
a(I1098
I632
tp2009
a(I1099
I632
tp2010
a(I1100
I632
tp2011
a(I1101
I632
tp2012
a(I1102
I632
tp2013
a(I1103
I632
tp2014
a(I1104
I632
tp2015
a(I1105
I632
tp2016
a(I1106
I632
tp2017
a(I1107
I632
tp2018
a(I1108
I632
tp2019
a(I1109
I632
tp2020
a(I1110
I632
tp2021
a(I1111
I632
tp2022
a(I1112
I632
tp2023
a(I1113
I632
tp2024
a(I1114
I632
tp2025
a(I1115
I632
tp2026
a(I1116
I632
tp2027
a(I1117
I632
tp2028
a(I1118
I632
tp2029
a(I1119
I632
tp2030
a(I1120
I632
tp2031
a(I1121
I632
tp2032
a(I1122
I632
tp2033
a(I1123
I632
tp2034
a(I1124
I632
tp2035
a(I1125
I632
tp2036
a(I1126
I632
tp2037
a(I1127
I632
tp2038
a(I1128
I632
tp2039
a(I1129
I632
tp2040
a(I1130
I632
tp2041
a(I1131
I632
tp2042
a(I1132
I632
tp2043
a(I1133
I632
tp2044
a(I1134
I632
tp2045
a(I1135
I632
tp2046
a(I1136
I632
tp2047
a(I1137
I632
tp2048
a(I1138
I632
tp2049
a(I1139
I632
tp2050
a(I1140
I632
tp2051
a(I1141
I632
tp2052
a(I1142
I632
tp2053
a(I1143
I632
tp2054
a(I1144
I632
tp2055
a(I1145
I632
tp2056
a(I1146
I632
tp2057
a(I1147
I632
tp2058
a(I1148
I632
tp2059
a(I1149
I632
tp2060
a(I1150
I632
tp2061
a.