(lp0
(I2365
I820
tp1
a(I2366
I820
tp2
a(I2367
I820
tp3
a(I2368
I820
tp4
a(I2369
I820
tp5
a(I2370
I820
tp6
a(I2371
I820
tp7
a(I2372
I820
tp8
a(I2373
I820
tp9
a(I2374
I820
tp10
a(I2375
I820
tp11
a(I2376
I820
tp12
a(I2377
I820
tp13
a(I2378
I820
tp14
a(I2379
I820
tp15
a(I2380
I820
tp16
a(I2381
I820
tp17
a(I2382
I820
tp18
a(I2383
I820
tp19
a(I2384
I820
tp20
a(I2385
I820
tp21
a(I2386
I820
tp22
a(I2387
I820
tp23
a(I2388
I820
tp24
a(I2389
I820
tp25
a(I2390
I820
tp26
a(I2391
I820
tp27
a(I2392
I820
tp28
a(I2393
I820
tp29
a(I2394
I820
tp30
a(I2395
I820
tp31
a(I2396
I820
tp32
a(I2397
I820
tp33
a(I2398
I820
tp34
a(I2399
I820
tp35
a(I2400
I820
tp36
a(I2401
I820
tp37
a(I2402
I820
tp38
a(I2403
I820
tp39
a(I2404
I820
tp40
a(I2405
I820
tp41
a(I2406
I820
tp42
a(I2407
I820
tp43
a(I2408
I820
tp44
a(I2409
I820
tp45
a(I2410
I820
tp46
a(I2411
I820
tp47
a(I2412
I820
tp48
a(I2413
I820
tp49
a(I2414
I820
tp50
a(I2415
I820
tp51
a(I2416
I820
tp52
a(I2417
I820
tp53
a(I2418
I820
tp54
a(I2419
I820
tp55
a(I2420
I820
tp56
a(I2421
I820
tp57
a(I2422
I820
tp58
a(I2423
I820
tp59
a(I2424
I820
tp60
a(I2425
I820
tp61
a(I2426
I820
tp62
a(I2427
I820
tp63
a(I2428
I820
tp64
a(I2429
I820
tp65
a(I2430
I820
tp66
a(I2431
I820
tp67
a(I2432
I820
tp68
a(I2433
I820
tp69
a(I2434
I820
tp70
a(I2435
I820
tp71
a(I2436
I820
tp72
a(I2437
I820
tp73
a(I2438
I820
tp74
a(I2439
I820
tp75
a(I2440
I820
tp76
a(I2441
I820
tp77
a(I2442
I820
tp78
a(I2443
I820
tp79
a(I2444
I820
tp80
a(I2445
I820
tp81
a(I2446
I820
tp82
a(I2447
I820
tp83
a(I2448
I820
tp84
a(I2449
I820
tp85
a(I2450
I820
tp86
a(I2451
I820
tp87
a(I2452
I820
tp88
a(I2453
I820
tp89
a(I2454
I820
tp90
a(I2455
I820
tp91
a(I2456
I820
tp92
a(I2457
I820
tp93
a(I2458
I820
tp94
a(I2459
I820
tp95
a(I2460
I820
tp96
a(I2461
I820
tp97
a(I2462
I820
tp98
a(I2463
I820
tp99
a(I2464
I820
tp100
a(I2465
I820
tp101
a(I2466
I820
tp102
a(I2467
I820
tp103
a(I2468
I820
tp104
a(I2469
I820
tp105
a(I2470
I820
tp106
a(I2471
I820
tp107
a(I2472
I820
tp108
a(I2473
I820
tp109
a(I2474
I820
tp110
a(I2475
I820
tp111
a(I2476
I820
tp112
a(I2477
I820
tp113
a(I2478
I820
tp114
a(I2479
I820
tp115
a(I2480
I820
tp116
a(I2481
I820
tp117
a(I2482
I820
tp118
a(I2483
I820
tp119
a(I2484
I820
tp120
a(I2485
I820
tp121
a(I2486
I820
tp122
a(I2487
I820
tp123
a(I2488
I820
tp124
a(I2489
I820
tp125
a(I2490
I820
tp126
a(I2491
I820
tp127
a(I2492
I820
tp128
a(I2493
I820
tp129
a(I2494
I820
tp130
a(I2495
I820
tp131
a(I2496
I820
tp132
a(I2497
I820
tp133
a(I2498
I820
tp134
a(I2499
I820
tp135
a(I2500
I820
tp136
a(I2501
I820
tp137
a(I2502
I820
tp138
a(I2503
I820
tp139
a(I2504
I820
tp140
a(I2505
I820
tp141
a(I2506
I820
tp142
a(I2507
I820
tp143
a(I2508
I820
tp144
a(I2509
I820
tp145
a(I2510
I820
tp146
a(I2511
I820
tp147
a(I2512
I820
tp148
a(I2513
I820
tp149
a(I2514
I820
tp150
a(I2515
I820
tp151
a(I2516
I820
tp152
a(I2517
I820
tp153
a(I2518
I820
tp154
a(I2519
I820
tp155
a(I2520
I820
tp156
a(I2521
I820
tp157
a(I2522
I820
tp158
a(I2523
I820
tp159
a(I2524
I820
tp160
a(I2525
I820
tp161
a(I2526
I820
tp162
a(I2527
I820
tp163
a(I2528
I820
tp164
a(I2529
I820
tp165
a(I2530
I820
tp166
a(I2531
I820
tp167
a(I2532
I820
tp168
a(I2533
I820
tp169
a(I2534
I820
tp170
a(I2535
I820
tp171
a(I2536
I820
tp172
a(I2537
I820
tp173
a(I2538
I820
tp174
a(I2539
I820
tp175
a(I2540
I820
tp176
a(I2541
I820
tp177
a(I2542
I820
tp178
a(I2543
I820
tp179
a(I2544
I820
tp180
a(I2545
I820
tp181
a(I2546
I820
tp182
a(I2547
I820
tp183
a(I2548
I820
tp184
a(I2549
I820
tp185
a(I2550
I820
tp186
a(I2551
I820
tp187
a(I2552
I820
tp188
a(I2553
I820
tp189
a(I2554
I820
tp190
a(I2555
I820
tp191
a(I2556
I820
tp192
a(I1471
I1284
tp193
a(I1472
I1284
tp194
a(I1473
I1284
tp195
a(I1474
I1284
tp196
a(I1475
I1284
tp197
a(I1476
I1284
tp198
a(I1477
I1284
tp199
a(I1478
I1284
tp200
a(I1479
I1284
tp201
a(I1480
I1284
tp202
a(I1481
I1284
tp203
a(I1482
I1284
tp204
a(I1483
I1284
tp205
a(I1484
I1284
tp206
a(I1485
I1284
tp207
a(I1486
I1284
tp208
a(I1487
I1284
tp209
a(I1488
I1284
tp210
a(I1489
I1284
tp211
a(I1490
I1284
tp212
a(I1491
I1284
tp213
a(I1492
I1284
tp214
a(I1493
I1284
tp215
a(I1494
I1284
tp216
a(I1495
I1284
tp217
a(I1496
I1284
tp218
a(I1497
I1284
tp219
a(I1498
I1284
tp220
a(I1499
I1284
tp221
a(I1500
I1284
tp222
a(I1501
I1284
tp223
a(I1502
I1284
tp224
a(I1503
I1284
tp225
a(I1504
I1284
tp226
a(I1505
I1284
tp227
a(I1506
I1284
tp228
a(I1507
I1284
tp229
a(I1508
I1284
tp230
a(I1509
I1284
tp231
a(I1510
I1284
tp232
a(I1511
I1284
tp233
a(I1512
I1284
tp234
a(I1513
I1284
tp235
a(I1514
I1284
tp236
a(I1515
I1284
tp237
a(I1516
I1284
tp238
a(I1517
I1284
tp239
a(I1518
I1284
tp240
a(I1519
I1284
tp241
a(I1520
I1284
tp242
a(I1521
I1284
tp243
a(I1522
I1284
tp244
a(I1523
I1284
tp245
a(I1524
I1284
tp246
a(I1525
I1284
tp247
a(I1526
I1284
tp248
a(I1527
I1284
tp249
a(I1528
I1284
tp250
a(I1529
I1284
tp251
a(I1530
I1284
tp252
a(I1531
I1284
tp253
a(I1532
I1284
tp254
a(I1533
I1284
tp255
a(I1534
I1284
tp256
a(I1535
I1284
tp257
a(I1536
I1284
tp258
a(I1537
I1284
tp259
a(I1538
I1284
tp260
a(I1539
I1284
tp261
a(I1540
I1284
tp262
a(I1541
I1284
tp263
a(I1542
I1284
tp264
a(I1543
I1284
tp265
a(I1544
I1284
tp266
a(I1545
I1284
tp267
a(I1546
I1284
tp268
a(I1547
I1284
tp269
a(I1548
I1284
tp270
a(I1549
I1284
tp271
a(I1550
I1284
tp272
a(I1551
I1284
tp273
a(I1552
I1284
tp274
a(I1553
I1284
tp275
a(I1554
I1284
tp276
a(I1555
I1284
tp277
a(I1556
I1284
tp278
a(I1557
I1284
tp279
a(I1558
I1284
tp280
a(I1559
I1284
tp281
a(I1560
I1284
tp282
a(I1561
I1284
tp283
a(I1562
I1284
tp284
a(I1563
I1284
tp285
a(I1564
I1284
tp286
a(I1565
I1284
tp287
a(I1566
I1284
tp288
a(I1567
I1284
tp289
a(I1568
I1284
tp290
a(I1569
I1284
tp291
a(I1570
I1284
tp292
a(I1571
I1284
tp293
a(I1572
I1284
tp294
a(I1573
I1284
tp295
a(I1574
I1284
tp296
a(I1575
I1284
tp297
a(I1576
I1284
tp298
a(I1577
I1284
tp299
a(I1578
I1284
tp300
a(I1579
I1284
tp301
a(I1580
I1284
tp302
a(I1581
I1284
tp303
a(I1582
I1284
tp304
a(I1583
I1284
tp305
a(I1584
I1284
tp306
a(I1585
I1284
tp307
a(I1586
I1284
tp308
a(I1587
I1284
tp309
a(I1588
I1284
tp310
a(I1589
I1284
tp311
a(I1590
I1284
tp312
a(I1591
I1284
tp313
a(I1592
I1284
tp314
a(I1593
I1284
tp315
a(I1594
I1284
tp316
a(I1595
I1284
tp317
a(I1596
I1284
tp318
a(I1597
I1284
tp319
a(I1598
I1284
tp320
a(I1599
I1284
tp321
a(I1600
I1284
tp322
a(I1601
I1284
tp323
a(I1602
I1284
tp324
a(I1603
I1284
tp325
a(I1604
I1284
tp326
a(I1605
I1284
tp327
a(I1606
I1284
tp328
a(I1607
I1284
tp329
a(I1608
I1284
tp330
a(I1609
I1284
tp331
a(I1610
I1284
tp332
a(I1611
I1284
tp333
a(I1612
I1284
tp334
a(I1613
I1284
tp335
a(I1614
I1284
tp336
a(I1615
I1284
tp337
a(I1616
I1284
tp338
a(I1617
I1284
tp339
a(I1618
I1284
tp340
a(I1619
I1284
tp341
a(I1620
I1284
tp342
a(I1621
I1284
tp343
a(I1622
I1284
tp344
a(I1623
I1284
tp345
a(I1624
I1284
tp346
a(I1625
I1284
tp347
a(I1626
I1284
tp348
a(I1627
I1284
tp349
a(I1628
I1284
tp350
a(I1629
I1284
tp351
a(I1630
I1284
tp352
a(I1631
I1284
tp353
a(I1632
I1284
tp354
a(I1633
I1284
tp355
a(I1634
I1284
tp356
a(I1635
I1284
tp357
a(I1636
I1284
tp358
a(I1637
I1284
tp359
a(I1638
I1284
tp360
a(I1639
I1284
tp361
a(I1640
I1284
tp362
a(I1641
I1284
tp363
a(I1642
I1284
tp364
a(I1643
I1284
tp365
a(I1644
I1284
tp366
a(I1645
I1284
tp367
a(I1646
I1284
tp368
a(I1647
I1284
tp369
a(I1648
I1284
tp370
a(I1649
I1284
tp371
a(I1650
I1284
tp372
a(I1651
I1284
tp373
a(I1652
I1284
tp374
a(I1653
I1284
tp375
a(I1654
I1284
tp376
a(I1655
I1284
tp377
a(I1656
I1284
tp378
a(I1657
I1284
tp379
a(I1658
I1284
tp380
a(I1659
I1284
tp381
a(I1660
I1284
tp382
a(I1661
I1284
tp383
a(I1662
I1284
tp384
a(I1663
I1284
tp385
a(I1664
I1284
tp386
a(I1665
I1284
tp387
a(I1666
I1284
tp388
a(I1667
I1284
tp389
a(I1668
I1284
tp390
a(I1669
I1284
tp391
a(I1670
I1284
tp392
a(I1671
I1284
tp393
a(I1672
I1284
tp394
a(I1673
I1284
tp395
a(I1674
I1284
tp396
a(I1675
I1284
tp397
a(I1676
I1284
tp398
a(I1677
I1284
tp399
a(I1678
I1284
tp400
a(I1679
I1284
tp401
a(I1680
I1284
tp402
a(I1681
I1284
tp403
a(I1682
I1284
tp404
a(I1683
I1284
tp405
a(I1684
I1284
tp406
a(I1685
I1284
tp407
a(I1686
I1284
tp408
a(I1687
I1284
tp409
a(I1688
I1284
tp410
a(I1689
I1284
tp411
a(I1690
I1284
tp412
a(I1691
I1284
tp413
a(I1692
I1284
tp414
a(I1693
I1284
tp415
a(I1694
I1284
tp416
a(I1695
I1284
tp417
a(I1696
I1284
tp418
a(I1697
I1284
tp419
a(I1698
I1284
tp420
a(I1699
I1284
tp421
a(I1700
I1284
tp422
a(I1701
I1284
tp423
a(I1702
I1284
tp424
a(I1703
I1284
tp425
a(I1704
I1284
tp426
a(I1705
I1284
tp427
a(I1706
I1284
tp428
a(I1707
I1284
tp429
a(I1708
I1284
tp430
a(I1709
I1284
tp431
a(I1710
I1284
tp432
a(I1711
I1284
tp433
a(I1712
I1284
tp434
a(I1713
I1284
tp435
a(I1714
I1284
tp436
a(I1715
I1284
tp437
a(I1716
I1284
tp438
a(I1717
I1284
tp439
a(I1718
I1284
tp440
a(I1719
I1284
tp441
a(I1720
I1284
tp442
a(I1721
I1284
tp443
a(I1722
I1284
tp444
a(I1723
I1284
tp445
a(I1724
I1284
tp446
a(I1725
I1284
tp447
a(I1726
I1284
tp448
a(I1727
I1284
tp449
a(I1728
I1284
tp450
a(I1729
I1284
tp451
a(I1730
I1284
tp452
a(I1731
I1284
tp453
a(I1732
I1284
tp454
a(I1733
I1284
tp455
a(I1734
I1284
tp456
a(I1735
I1284
tp457
a(I1736
I1284
tp458
a(I1737
I1284
tp459
a(I1738
I1284
tp460
a(I1739
I1284
tp461
a(I1740
I1284
tp462
a(I1741
I1284
tp463
a(I1742
I1284
tp464
a(I1743
I1284
tp465
a(I1744
I1284
tp466
a(I1745
I1284
tp467
a(I1746
I1284
tp468
a(I1747
I1284
tp469
a(I1748
I1284
tp470
a(I1749
I1284
tp471
a(I1750
I1284
tp472
a(I1751
I1284
tp473
a(I1752
I1284
tp474
a(I1753
I1284
tp475
a(I1754
I1284
tp476
a(I1755
I1284
tp477
a(I1756
I1284
tp478
a(I1757
I1284
tp479
a(I1758
I1284
tp480
a(I1759
I1284
tp481
a(I1760
I1284
tp482
a(I1761
I1284
tp483
a(I1762
I1284
tp484
a(I1763
I1284
tp485
a(I1764
I1284
tp486
a(I1765
I1284
tp487
a(I1766
I1284
tp488
a(I1767
I1284
tp489
a(I1768
I1284
tp490
a(I1769
I1284
tp491
a(I1770
I1284
tp492
a(I1771
I1284
tp493
a(I1772
I1284
tp494
a(I1773
I1284
tp495
a(I1774
I1284
tp496
a(I1775
I1284
tp497
a(I1776
I1284
tp498
a(I1777
I1284
tp499
a(I1778
I1284
tp500
a(I1779
I1284
tp501
a(I1780
I1284
tp502
a(I1781
I1284
tp503
a(I1782
I1284
tp504
a(I1783
I1284
tp505
a(I1784
I1284
tp506
a(I1785
I1284
tp507
a(I1786
I1284
tp508
a(I1787
I1284
tp509
a(I1788
I1284
tp510
a(I1789
I1284
tp511
a(I1790
I1284
tp512
a(I1791
I1284
tp513
a(I1792
I1284
tp514
a(I1793
I1284
tp515
a(I1794
I1284
tp516
a(I1795
I1284
tp517
a(I1796
I1284
tp518
a(I1797
I1284
tp519
a(I1798
I1284
tp520
a(I1799
I1284
tp521
a(I1800
I1284
tp522
a(I1801
I1284
tp523
a(I1802
I1284
tp524
a(I1803
I1284
tp525
a(I1804
I1284
tp526
a(I1805
I1284
tp527
a(I1806
I1284
tp528
a(I1807
I1284
tp529
a(I1808
I1284
tp530
a(I1809
I1284
tp531
a(I1810
I1284
tp532
a(I1811
I1284
tp533
a(I1812
I1284
tp534
a(I1813
I1284
tp535
a(I1814
I1284
tp536
a(I1815
I1284
tp537
a(I1816
I1284
tp538
a(I1817
I1284
tp539
a(I1818
I1284
tp540
a(I1819
I1284
tp541
a(I1820
I1284
tp542
a(I1821
I1284
tp543
a(I1822
I1284
tp544
a(I1823
I1284
tp545
a(I1824
I1284
tp546
a(I1825
I1284
tp547
a(I1826
I1284
tp548
a(I1827
I1284
tp549
a(I1828
I1284
tp550
a(I1829
I1284
tp551
a(I1830
I1284
tp552
a(I1831
I1284
tp553
a(I1832
I1284
tp554
a(I1833
I1284
tp555
a(I1834
I1284
tp556
a(I1835
I1284
tp557
a(I1836
I1284
tp558
a(I1837
I1284
tp559
a(I1838
I1284
tp560
a(I1839
I1284
tp561
a(I1840
I1284
tp562
a(I1841
I1284
tp563
a(I1842
I1284
tp564
a(I1843
I1284
tp565
a(I1844
I1284
tp566
a(I1845
I1284
tp567
a(I1846
I1284
tp568
a(I1847
I1284
tp569
a(I1848
I1284
tp570
a(I1849
I1284
tp571
a(I1850
I1284
tp572
a(I1851
I1284
tp573
a(I1852
I1284
tp574
a(I1853
I1284
tp575
a(I1854
I1284
tp576
a(I1855
I1284
tp577
a(I1856
I1284
tp578
a(I1857
I1284
tp579
a(I1858
I1284
tp580
a(I1859
I1284
tp581
a(I1860
I1284
tp582
a(I1861
I1284
tp583
a(I1862
I1284
tp584
a(I1863
I1284
tp585
a(I1864
I1284
tp586
a(I1865
I1284
tp587
a(I1866
I1284
tp588
a(I1867
I1284
tp589
a(I1868
I1284
tp590
a(I1869
I1284
tp591
a(I1870
I1284
tp592
a(I1871
I1284
tp593
a(I1872
I1284
tp594
a(I1873
I1284
tp595
a(I1874
I1284
tp596
a(I1875
I1284
tp597
a(I1876
I1284
tp598
a(I1877
I1284
tp599
a(I1878
I1284
tp600
a(I1879
I1284
tp601
a(I1880
I1284
tp602
a(I1881
I1284
tp603
a(I1882
I1284
tp604
a(I1883
I1284
tp605
a(I1884
I1284
tp606
a(I1885
I1284
tp607
a(I1886
I1284
tp608
a(I1887
I1284
tp609
a(I1888
I1284
tp610
a(I1889
I1284
tp611
a(I1890
I1284
tp612
a(I1891
I1284
tp613
a(I1892
I1284
tp614
a(I1893
I1284
tp615
a(I1894
I1284
tp616
a(I1895
I1284
tp617
a(I1896
I1284
tp618
a(I1897
I1284
tp619
a(I1898
I1284
tp620
a(I1899
I1284
tp621
a(I1900
I1284
tp622
a(I1901
I1284
tp623
a(I1902
I1284
tp624
a(I1903
I1284
tp625
a(I1904
I1284
tp626
a(I1905
I1284
tp627
a(I1906
I1284
tp628
a(I1907
I1284
tp629
a(I1908
I1284
tp630
a(I1909
I1284
tp631
a(I1910
I1284
tp632
a(I1911
I1284
tp633
a(I1912
I1284
tp634
a(I1913
I1284
tp635
a(I1914
I1284
tp636
a(I1915
I1284
tp637
a(I1916
I1284
tp638
a(I1917
I1284
tp639
a(I1918
I1284
tp640
a(I1919
I1284
tp641
a(I1920
I1284
tp642
a(I1921
I1284
tp643
a(I1922
I1284
tp644
a(I1923
I1284
tp645
a(I1924
I1284
tp646
a(I1925
I1284
tp647
a(I1926
I1284
tp648
a(I1927
I1284
tp649
a(I1928
I1284
tp650
a(I1929
I1284
tp651
a(I1930
I1284
tp652
a(I1931
I1284
tp653
a(I1932
I1284
tp654
a(I1933
I1284
tp655
a(I1934
I1284
tp656
a(I1935
I1284
tp657
a(I1936
I1284
tp658
a(I1937
I1284
tp659
a(I1938
I1284
tp660
a(I1939
I1284
tp661
a(I1940
I1284
tp662
a(I1941
I1284
tp663
a(I1942
I1284
tp664
a(I1943
I1284
tp665
a(I1944
I1284
tp666
a(I1945
I1284
tp667
a(I1946
I1284
tp668
a(I1947
I1284
tp669
a(I1948
I1284
tp670
a(I1949
I1284
tp671
a(I1950
I1284
tp672
a(I1951
I1284
tp673
a(I1952
I1284
tp674
a(I1953
I1284
tp675
a(I1954
I1284
tp676
a(I1955
I1284
tp677
a(I1956
I1284
tp678
a(I1957
I1284
tp679
a(I1958
I1284
tp680
a(I1959
I1284
tp681
a(I1960
I1284
tp682
a(I1961
I1284
tp683
a(I1962
I1284
tp684
a(I1963
I1284
tp685
a(I1964
I1284
tp686
a(I1965
I1284
tp687
a(I1966
I1284
tp688
a(I1967
I1284
tp689
a(I1968
I1284
tp690
a(I1969
I1284
tp691
a(I1970
I1284
tp692
a(I1971
I1284
tp693
a(I1972
I1284
tp694
a(I1973
I1284
tp695
a(I1974
I1284
tp696
a(I1975
I1284
tp697
a(I1976
I1284
tp698
a(I1977
I1284
tp699
a(I1978
I1284
tp700
a(I1979
I1284
tp701
a(I1980
I1284
tp702
a(I1981
I1284
tp703
a(I1982
I1284
tp704
a(I1983
I1284
tp705
a(I1984
I1284
tp706
a(I1985
I1284
tp707
a(I1986
I1284
tp708
a(I1987
I1284
tp709
a(I1988
I1284
tp710
a(I1989
I1284
tp711
a(I1990
I1284
tp712
a(I1991
I1284
tp713
a(I1992
I1284
tp714
a(I1993
I1284
tp715
a(I1994
I1284
tp716
a(I1995
I1284
tp717
a(I1996
I1284
tp718
a(I1997
I1284
tp719
a(I1998
I1284
tp720
a(I1999
I1284
tp721
a(I2000
I1284
tp722
a(I2001
I1284
tp723
a(I2002
I1284
tp724
a(I2003
I1284
tp725
a(I2004
I1284
tp726
a(I2005
I1284
tp727
a(I2006
I1284
tp728
a(I2007
I1284
tp729
a(I2008
I1284
tp730
a(I2009
I1284
tp731
a(I2010
I1284
tp732
a(I2011
I1284
tp733
a(I2012
I1284
tp734
a(I2013
I1284
tp735
a(I2014
I1284
tp736
a(I2015
I1284
tp737
a(I2016
I1284
tp738
a(I2017
I1284
tp739
a(I2018
I1284
tp740
a(I2019
I1284
tp741
a(I2020
I1284
tp742
a(I2021
I1284
tp743
a(I2022
I1284
tp744
a(I2023
I1284
tp745
a(I2024
I1284
tp746
a(I2025
I1284
tp747
a(I2026
I1284
tp748
a(I2027
I1284
tp749
a(I2028
I1284
tp750
a(I2029
I1284
tp751
a(I2030
I1284
tp752
a(I2031
I1284
tp753
a(I2032
I1284
tp754
a(I2033
I1284
tp755
a(I2034
I1284
tp756
a(I2035
I1284
tp757
a(I2036
I1284
tp758
a(I2037
I1284
tp759
a(I2038
I1284
tp760
a(I2039
I1284
tp761
a(I2040
I1284
tp762
a(I2041
I1284
tp763
a(I2042
I1284
tp764
a(I2043
I1284
tp765
a(I2044
I1284
tp766
a(I2045
I1284
tp767
a(I2046
I1284
tp768
a(I2047
I1284
tp769
a(I2048
I1284
tp770
a(I2049
I1284
tp771
a(I2050
I1284
tp772
a(I2051
I1284
tp773
a(I2052
I1284
tp774
a(I2053
I1284
tp775
a(I2054
I1284
tp776
a(I2055
I1284
tp777
a(I2056
I1284
tp778
a(I2057
I1284
tp779
a(I2058
I1284
tp780
a(I2059
I1284
tp781
a(I2060
I1284
tp782
a(I2061
I1284
tp783
a(I2062
I1284
tp784
a(I2063
I1284
tp785
a(I2064
I1284
tp786
a(I2065
I1284
tp787
a(I2066
I1284
tp788
a(I2067
I1284
tp789
a(I2068
I1284
tp790
a(I2069
I1284
tp791
a(I2070
I1284
tp792
a(I2071
I1284
tp793
a(I2072
I1284
tp794
a(I2073
I1284
tp795
a(I2074
I1284
tp796
a(I2075
I1284
tp797
a(I2076
I1284
tp798
a(I2077
I1284
tp799
a(I2078
I1284
tp800
a(I2079
I1284
tp801
a(I2080
I1284
tp802
a(I2081
I1284
tp803
a(I2082
I1284
tp804
a(I2083
I1284
tp805
a(I2084
I1284
tp806
a(I2085
I1284
tp807
a(I2086
I1284
tp808
a(I2087
I1284
tp809
a(I2088
I1284
tp810
a(I2089
I1284
tp811
a(I2090
I1284
tp812
a(I2091
I1284
tp813
a(I2092
I1284
tp814
a(I2093
I1284
tp815
a(I2094
I1284
tp816
a(I2095
I1284
tp817
a(I2096
I1284
tp818
a(I2097
I1284
tp819
a(I2098
I1284
tp820
a(I2099
I1284
tp821
a(I2100
I1284
tp822
a(I2101
I1284
tp823
a(I2102
I1284
tp824
a(I2103
I1284
tp825
a(I2104
I1284
tp826
a(I2105
I1284
tp827
a(I2106
I1284
tp828
a(I2107
I1284
tp829
a(I2108
I1284
tp830
a(I2109
I1284
tp831
a(I2110
I1284
tp832
a(I2111
I1284
tp833
a(I2112
I1284
tp834
a(I2113
I1284
tp835
a(I2114
I1284
tp836
a(I2115
I1284
tp837
a(I2116
I1284
tp838
a(I2117
I1284
tp839
a(I2118
I1284
tp840
a(I2119
I1284
tp841
a(I2120
I1284
tp842
a(I2121
I1284
tp843
a(I2122
I1284
tp844
a(I2123
I1284
tp845
a(I2124
I1284
tp846
a(I2125
I1284
tp847
a(I2126
I1284
tp848
a(I2127
I1284
tp849
a(I2128
I1284
tp850
a(I2129
I1284
tp851
a(I2130
I1284
tp852
a(I2131
I1284
tp853
a(I2132
I1284
tp854
a(I2133
I1284
tp855
a(I2134
I1284
tp856
a(I2135
I1284
tp857
a(I2136
I1284
tp858
a(I2137
I1284
tp859
a(I2138
I1284
tp860
a(I2139
I1284
tp861
a(I2140
I1284
tp862
a(I2141
I1284
tp863
a(I2142
I1284
tp864
a(I2143
I1284
tp865
a(I2144
I1284
tp866
a(I2145
I1284
tp867
a(I2146
I1284
tp868
a(I2147
I1284
tp869
a(I2148
I1284
tp870
a(I2149
I1284
tp871
a(I2150
I1284
tp872
a(I2151
I1284
tp873
a(I2152
I1284
tp874
a(I2153
I1284
tp875
a(I2154
I1284
tp876
a(I2155
I1284
tp877
a(I2156
I1284
tp878
a(I2157
I1284
tp879
a(I2158
I1284
tp880
a(I2159
I1284
tp881
a(I2160
I1284
tp882
a(I2161
I1284
tp883
a(I2162
I1284
tp884
a(I2163
I1284
tp885
a(I2164
I1284
tp886
a(I2165
I1284
tp887
a(I2166
I1284
tp888
a(I2167
I1284
tp889
a(I2168
I1284
tp890
a(I2169
I1284
tp891
a(I2170
I1284
tp892
a(I2171
I1284
tp893
a(I2172
I1284
tp894
a(I2173
I1284
tp895
a(I2174
I1284
tp896
a(I2175
I1284
tp897
a(I2176
I1284
tp898
a(I2177
I1284
tp899
a(I2178
I1284
tp900
a(I2179
I1284
tp901
a(I2180
I1284
tp902
a(I2181
I1284
tp903
a(I2182
I1284
tp904
a(I2183
I1284
tp905
a(I2184
I1284
tp906
a(I2185
I1284
tp907
a(I2186
I1284
tp908
a(I2187
I1284
tp909
a(I2188
I1284
tp910
a(I2189
I1284
tp911
a(I2190
I1284
tp912
a(I2191
I1284
tp913
a(I2192
I1284
tp914
a(I2193
I1284
tp915
a(I2194
I1284
tp916
a(I2195
I1284
tp917
a(I2196
I1284
tp918
a(I2197
I1284
tp919
a(I2198
I1284
tp920
a(I2199
I1284
tp921
a(I2200
I1284
tp922
a(I2201
I1284
tp923
a(I2202
I1284
tp924
a(I2203
I1284
tp925
a(I2204
I1284
tp926
a(I2205
I1284
tp927
a(I2206
I1284
tp928
a(I2207
I1284
tp929
a(I2208
I1284
tp930
a(I2209
I1284
tp931
a(I2210
I1284
tp932
a(I2211
I1284
tp933
a(I2212
I1284
tp934
a(I2213
I1284
tp935
a(I2214
I1284
tp936
a(I2215
I1284
tp937
a(I2216
I1284
tp938
a(I2217
I1284
tp939
a(I2218
I1284
tp940
a(I2219
I1284
tp941
a(I2220
I1284
tp942
a(I2221
I1284
tp943
a(I2222
I1284
tp944
a(I2223
I1284
tp945
a(I2224
I1284
tp946
a(I2225
I1284
tp947
a(I2226
I1284
tp948
a(I2227
I1284
tp949
a(I2228
I1284
tp950
a(I2229
I1284
tp951
a(I2230
I1284
tp952
a(I2231
I1284
tp953
a(I2232
I1284
tp954
a(I2233
I1284
tp955
a(I2234
I1284
tp956
a(I2235
I1284
tp957
a(I2236
I1284
tp958
a(I2237
I1284
tp959
a(I2238
I1284
tp960
a(I2239
I1284
tp961
a(I2240
I1284
tp962
a(I2241
I1284
tp963
a(I2242
I1284
tp964
a(I2243
I1284
tp965
a(I2244
I1284
tp966
a(I2245
I1284
tp967
a(I2246
I1284
tp968
a(I2247
I1284
tp969
a(I2248
I1284
tp970
a(I2249
I1284
tp971
a(I2250
I1284
tp972
a(I2251
I1284
tp973
a(I2252
I1284
tp974
a(I2253
I1284
tp975
a(I2254
I1284
tp976
a(I2255
I1284
tp977
a(I2256
I1284
tp978
a(I2257
I1284
tp979
a(I2258
I1284
tp980
a(I2259
I1284
tp981
a(I2260
I1284
tp982
a(I2261
I1284
tp983
a(I2262
I1284
tp984
a(I2263
I1284
tp985
a(I2264
I1284
tp986
a(I2265
I1284
tp987
a(I2266
I1284
tp988
a(I2267
I1284
tp989
a(I2268
I1284
tp990
a(I2269
I1284
tp991
a(I2270
I1284
tp992
a(I2271
I1284
tp993
a(I2272
I1284
tp994
a(I2273
I1284
tp995
a(I2274
I1284
tp996
a(I2275
I1284
tp997
a(I2276
I1284
tp998
a(I2277
I1284
tp999
a(I2278
I1284
tp1000
a(I2279
I1284
tp1001
a(I2280
I1284
tp1002
a(I2281
I1284
tp1003
a(I2282
I1284
tp1004
a(I2283
I1284
tp1005
a(I2284
I1284
tp1006
a(I2285
I1284
tp1007
a(I2286
I1284
tp1008
a(I2287
I1284
tp1009
a(I2288
I1284
tp1010
a(I2289
I1284
tp1011
a(I2290
I1284
tp1012
a(I2291
I1284
tp1013
a(I2292
I1284
tp1014
a(I2293
I1284
tp1015
a(I2294
I1284
tp1016
a(I2295
I1284
tp1017
a(I2296
I1284
tp1018
a(I2297
I1284
tp1019
a(I2298
I1284
tp1020
a(I2299
I1284
tp1021
a(I2300
I1284
tp1022
a(I1471
I1285
tp1023
a(I1471
I1286
tp1024
a(I1471
I1287
tp1025
a(I1471
I1288
tp1026
a(I1471
I1289
tp1027
a(I1471
I1290
tp1028
a(I1471
I1291
tp1029
a(I1471
I1292
tp1030
a(I1471
I1293
tp1031
a(I1471
I1294
tp1032
a(I1471
I1295
tp1033
a(I1471
I1296
tp1034
a(I1471
I1297
tp1035
a(I1471
I1298
tp1036
a(I1471
I1299
tp1037
a(I1471
I1300
tp1038
a(I1471
I1301
tp1039
a(I1471
I1302
tp1040
a(I1471
I1303
tp1041
a(I1471
I1304
tp1042
a(I1471
I1305
tp1043
a(I1471
I1306
tp1044
a(I1471
I1307
tp1045
a(I1471
I1308
tp1046
a(I1471
I1309
tp1047
a(I1471
I1310
tp1048
a(I1471
I1311
tp1049
a(I1471
I1312
tp1050
a(I1471
I1313
tp1051
a(I1471
I1314
tp1052
a(I1471
I1315
tp1053
a(I1471
I1316
tp1054
a(I1471
I1317
tp1055
a(I1471
I1318
tp1056
a(I1471
I1319
tp1057
a(I1471
I1320
tp1058
a(I1471
I1321
tp1059
a(I1471
I1322
tp1060
a(I1471
I1323
tp1061
a(I1471
I1324
tp1062
a(I1471
I1325
tp1063
a(I1471
I1326
tp1064
a(I1471
I1327
tp1065
a(I1471
I1328
tp1066
a(I1471
I1329
tp1067
a(I1471
I1330
tp1068
a(I1471
I1331
tp1069
a(I1471
I1332
tp1070
a(I1471
I1333
tp1071
a(I1471
I1334
tp1072
a(I1471
I1335
tp1073
a(I1471
I1336
tp1074
a(I1471
I1337
tp1075
a(I1471
I1338
tp1076
a(I1471
I1339
tp1077
a(I1471
I1340
tp1078
a(I1471
I1341
tp1079
a(I1471
I1342
tp1080
a(I1471
I1343
tp1081
a(I1471
I1344
tp1082
a(I1471
I1345
tp1083
a(I1471
I1346
tp1084
a(I1471
I1347
tp1085
a(I1471
I1348
tp1086
a(I1471
I1349
tp1087
a(I1471
I1350
tp1088
a(I1471
I1351
tp1089
a(I1471
I1352
tp1090
a(I1471
I1353
tp1091
a(I1471
I1354
tp1092
a(I1471
I1355
tp1093
a(I1471
I1356
tp1094
a(I1471
I1357
tp1095
a(I1471
I1358
tp1096
a(I1471
I1359
tp1097
a(I1471
I1360
tp1098
a(I1471
I1361
tp1099
a(I1471
I1362
tp1100
a(I1471
I1363
tp1101
a(I1471
I1364
tp1102
a(I1471
I1365
tp1103
a(I321
I1366
tp1104
a(I322
I1366
tp1105
a(I323
I1366
tp1106
a(I324
I1366
tp1107
a(I325
I1366
tp1108
a(I326
I1366
tp1109
a(I327
I1366
tp1110
a(I328
I1366
tp1111
a(I329
I1366
tp1112
a(I330
I1366
tp1113
a(I331
I1366
tp1114
a(I332
I1366
tp1115
a(I333
I1366
tp1116
a(I334
I1366
tp1117
a(I335
I1366
tp1118
a(I336
I1366
tp1119
a(I337
I1366
tp1120
a(I338
I1366
tp1121
a(I339
I1366
tp1122
a(I340
I1366
tp1123
a(I341
I1366
tp1124
a(I342
I1366
tp1125
a(I343
I1366
tp1126
a(I344
I1366
tp1127
a(I345
I1366
tp1128
a(I346
I1366
tp1129
a(I347
I1366
tp1130
a(I348
I1366
tp1131
a(I349
I1366
tp1132
a(I350
I1366
tp1133
a(I351
I1366
tp1134
a(I352
I1366
tp1135
a(I353
I1366
tp1136
a(I354
I1366
tp1137
a(I355
I1366
tp1138
a(I356
I1366
tp1139
a(I357
I1366
tp1140
a(I358
I1366
tp1141
a(I359
I1366
tp1142
a(I360
I1366
tp1143
a(I361
I1366
tp1144
a(I362
I1366
tp1145
a(I363
I1366
tp1146
a(I364
I1366
tp1147
a(I365
I1366
tp1148
a(I366
I1366
tp1149
a(I367
I1366
tp1150
a(I368
I1366
tp1151
a(I369
I1366
tp1152
a(I370
I1366
tp1153
a(I371
I1366
tp1154
a(I372
I1366
tp1155
a(I373
I1366
tp1156
a(I374
I1366
tp1157
a(I375
I1366
tp1158
a(I376
I1366
tp1159
a(I377
I1366
tp1160
a(I378
I1366
tp1161
a(I379
I1366
tp1162
a(I380
I1366
tp1163
a(I381
I1366
tp1164
a(I382
I1366
tp1165
a(I383
I1366
tp1166
a(I384
I1366
tp1167
a(I385
I1366
tp1168
a(I386
I1366
tp1169
a(I387
I1366
tp1170
a(I388
I1366
tp1171
a(I389
I1366
tp1172
a(I390
I1366
tp1173
a(I391
I1366
tp1174
a(I392
I1366
tp1175
a(I393
I1366
tp1176
a(I394
I1366
tp1177
a(I395
I1366
tp1178
a(I396
I1366
tp1179
a(I397
I1366
tp1180
a(I398
I1366
tp1181
a(I399
I1366
tp1182
a(I400
I1366
tp1183
a(I401
I1366
tp1184
a(I402
I1366
tp1185
a(I403
I1366
tp1186
a(I404
I1366
tp1187
a(I405
I1366
tp1188
a(I406
I1366
tp1189
a(I407
I1366
tp1190
a(I408
I1366
tp1191
a(I409
I1366
tp1192
a(I410
I1366
tp1193
a(I411
I1366
tp1194
a(I412
I1366
tp1195
a(I413
I1366
tp1196
a(I414
I1366
tp1197
a(I415
I1366
tp1198
a(I416
I1366
tp1199
a(I417
I1366
tp1200
a(I418
I1366
tp1201
a(I419
I1366
tp1202
a(I420
I1366
tp1203
a(I421
I1366
tp1204
a(I422
I1366
tp1205
a(I423
I1366
tp1206
a(I424
I1366
tp1207
a(I425
I1366
tp1208
a(I426
I1366
tp1209
a(I427
I1366
tp1210
a(I428
I1366
tp1211
a(I429
I1366
tp1212
a(I430
I1366
tp1213
a(I431
I1366
tp1214
a(I432
I1366
tp1215
a(I433
I1366
tp1216
a(I434
I1366
tp1217
a(I435
I1366
tp1218
a(I436
I1366
tp1219
a(I437
I1366
tp1220
a(I438
I1366
tp1221
a(I439
I1366
tp1222
a(I440
I1366
tp1223
a(I441
I1366
tp1224
a(I442
I1366
tp1225
a(I443
I1366
tp1226
a(I444
I1366
tp1227
a(I445
I1366
tp1228
a(I446
I1366
tp1229
a(I447
I1366
tp1230
a(I448
I1366
tp1231
a(I449
I1366
tp1232
a(I450
I1366
tp1233
a(I451
I1366
tp1234
a(I452
I1366
tp1235
a(I453
I1366
tp1236
a(I454
I1366
tp1237
a(I455
I1366
tp1238
a(I456
I1366
tp1239
a(I457
I1366
tp1240
a(I458
I1366
tp1241
a(I459
I1366
tp1242
a(I460
I1366
tp1243
a(I461
I1366
tp1244
a(I462
I1366
tp1245
a(I463
I1366
tp1246
a(I464
I1366
tp1247
a(I465
I1366
tp1248
a(I466
I1366
tp1249
a(I467
I1366
tp1250
a(I468
I1366
tp1251
a(I469
I1366
tp1252
a(I470
I1366
tp1253
a(I471
I1366
tp1254
a(I472
I1366
tp1255
a(I473
I1366
tp1256
a(I474
I1366
tp1257
a(I475
I1366
tp1258
a(I476
I1366
tp1259
a(I477
I1366
tp1260
a(I478
I1366
tp1261
a(I479
I1366
tp1262
a(I480
I1366
tp1263
a(I481
I1366
tp1264
a(I482
I1366
tp1265
a(I483
I1366
tp1266
a(I484
I1366
tp1267
a(I485
I1366
tp1268
a(I486
I1366
tp1269
a(I487
I1366
tp1270
a(I488
I1366
tp1271
a(I489
I1366
tp1272
a(I490
I1366
tp1273
a(I491
I1366
tp1274
a(I492
I1366
tp1275
a(I493
I1366
tp1276
a(I494
I1366
tp1277
a(I495
I1366
tp1278
a(I496
I1366
tp1279
a(I497
I1366
tp1280
a(I498
I1366
tp1281
a(I499
I1366
tp1282
a(I500
I1366
tp1283
a(I501
I1366
tp1284
a(I502
I1366
tp1285
a(I503
I1366
tp1286
a(I504
I1366
tp1287
a(I505
I1366
tp1288
a(I506
I1366
tp1289
a(I507
I1366
tp1290
a(I508
I1366
tp1291
a(I509
I1366
tp1292
a(I510
I1366
tp1293
a(I511
I1366
tp1294
a(I512
I1366
tp1295
a(I513
I1366
tp1296
a(I514
I1366
tp1297
a(I515
I1366
tp1298
a(I516
I1366
tp1299
a(I517
I1366
tp1300
a(I518
I1366
tp1301
a(I519
I1366
tp1302
a(I520
I1366
tp1303
a(I521
I1366
tp1304
a(I522
I1366
tp1305
a(I523
I1366
tp1306
a(I524
I1366
tp1307
a(I525
I1366
tp1308
a(I526
I1366
tp1309
a(I527
I1366
tp1310
a(I528
I1366
tp1311
a(I529
I1366
tp1312
a(I530
I1366
tp1313
a(I531
I1366
tp1314
a(I532
I1366
tp1315
a(I533
I1366
tp1316
a(I534
I1366
tp1317
a(I535
I1366
tp1318
a(I536
I1366
tp1319
a(I537
I1366
tp1320
a(I538
I1366
tp1321
a(I539
I1366
tp1322
a(I540
I1366
tp1323
a(I541
I1366
tp1324
a(I542
I1366
tp1325
a(I543
I1366
tp1326
a(I544
I1366
tp1327
a(I545
I1366
tp1328
a(I546
I1366
tp1329
a(I547
I1366
tp1330
a(I548
I1366
tp1331
a(I549
I1366
tp1332
a(I550
I1366
tp1333
a(I551
I1366
tp1334
a(I552
I1366
tp1335
a(I553
I1366
tp1336
a(I554
I1366
tp1337
a(I555
I1366
tp1338
a(I556
I1366
tp1339
a(I557
I1366
tp1340
a(I558
I1366
tp1341
a(I559
I1366
tp1342
a(I560
I1366
tp1343
a(I561
I1366
tp1344
a(I562
I1366
tp1345
a(I563
I1366
tp1346
a(I564
I1366
tp1347
a(I565
I1366
tp1348
a(I566
I1366
tp1349
a(I567
I1366
tp1350
a(I568
I1366
tp1351
a(I569
I1366
tp1352
a(I570
I1366
tp1353
a(I571
I1366
tp1354
a(I572
I1366
tp1355
a(I573
I1366
tp1356
a(I574
I1366
tp1357
a(I575
I1366
tp1358
a(I576
I1366
tp1359
a(I577
I1366
tp1360
a(I578
I1366
tp1361
a(I579
I1366
tp1362
a(I580
I1366
tp1363
a(I581
I1366
tp1364
a(I582
I1366
tp1365
a(I583
I1366
tp1366
a(I584
I1366
tp1367
a(I585
I1366
tp1368
a(I586
I1366
tp1369
a(I587
I1366
tp1370
a(I588
I1366
tp1371
a(I589
I1366
tp1372
a(I590
I1366
tp1373
a(I591
I1366
tp1374
a(I592
I1366
tp1375
a(I593
I1366
tp1376
a(I594
I1366
tp1377
a(I595
I1366
tp1378
a(I596
I1366
tp1379
a(I597
I1366
tp1380
a(I598
I1366
tp1381
a(I599
I1366
tp1382
a(I600
I1366
tp1383
a(I601
I1366
tp1384
a(I602
I1366
tp1385
a(I603
I1366
tp1386
a(I604
I1366
tp1387
a(I605
I1366
tp1388
a(I606
I1366
tp1389
a(I607
I1366
tp1390
a(I608
I1366
tp1391
a(I609
I1366
tp1392
a(I610
I1366
tp1393
a(I611
I1366
tp1394
a(I612
I1366
tp1395
a(I613
I1366
tp1396
a(I614
I1366
tp1397
a(I615
I1366
tp1398
a(I616
I1366
tp1399
a(I617
I1366
tp1400
a(I618
I1366
tp1401
a(I619
I1366
tp1402
a(I620
I1366
tp1403
a(I621
I1366
tp1404
a(I622
I1366
tp1405
a(I623
I1366
tp1406
a(I624
I1366
tp1407
a(I625
I1366
tp1408
a(I626
I1366
tp1409
a(I627
I1366
tp1410
a(I628
I1366
tp1411
a(I629
I1366
tp1412
a(I630
I1366
tp1413
a(I631
I1366
tp1414
a(I632
I1366
tp1415
a(I633
I1366
tp1416
a(I634
I1366
tp1417
a(I635
I1366
tp1418
a(I636
I1366
tp1419
a(I637
I1366
tp1420
a(I638
I1366
tp1421
a(I639
I1366
tp1422
a(I640
I1366
tp1423
a(I641
I1366
tp1424
a(I642
I1366
tp1425
a(I643
I1366
tp1426
a(I644
I1366
tp1427
a(I645
I1366
tp1428
a(I646
I1366
tp1429
a(I647
I1366
tp1430
a(I648
I1366
tp1431
a(I649
I1366
tp1432
a(I650
I1366
tp1433
a(I651
I1366
tp1434
a(I652
I1366
tp1435
a(I653
I1366
tp1436
a(I654
I1366
tp1437
a(I655
I1366
tp1438
a(I656
I1366
tp1439
a(I657
I1366
tp1440
a(I658
I1366
tp1441
a(I659
I1366
tp1442
a(I660
I1366
tp1443
a(I661
I1366
tp1444
a(I662
I1366
tp1445
a(I663
I1366
tp1446
a(I664
I1366
tp1447
a(I665
I1366
tp1448
a(I666
I1366
tp1449
a(I667
I1366
tp1450
a(I668
I1366
tp1451
a(I669
I1366
tp1452
a(I670
I1366
tp1453
a(I671
I1366
tp1454
a(I672
I1366
tp1455
a(I673
I1366
tp1456
a(I674
I1366
tp1457
a(I675
I1366
tp1458
a(I676
I1366
tp1459
a(I677
I1366
tp1460
a(I678
I1366
tp1461
a(I679
I1366
tp1462
a(I680
I1366
tp1463
a(I681
I1366
tp1464
a(I682
I1366
tp1465
a(I683
I1366
tp1466
a(I684
I1366
tp1467
a(I685
I1366
tp1468
a(I686
I1366
tp1469
a(I687
I1366
tp1470
a(I688
I1366
tp1471
a(I689
I1366
tp1472
a(I690
I1366
tp1473
a(I691
I1366
tp1474
a(I692
I1366
tp1475
a(I693
I1366
tp1476
a(I694
I1366
tp1477
a(I695
I1366
tp1478
a(I696
I1366
tp1479
a(I697
I1366
tp1480
a(I698
I1366
tp1481
a(I699
I1366
tp1482
a(I700
I1366
tp1483
a(I701
I1366
tp1484
a(I702
I1366
tp1485
a(I703
I1366
tp1486
a(I704
I1366
tp1487
a(I705
I1366
tp1488
a(I706
I1366
tp1489
a(I707
I1366
tp1490
a(I708
I1366
tp1491
a(I709
I1366
tp1492
a(I710
I1366
tp1493
a(I711
I1366
tp1494
a(I712
I1366
tp1495
a(I713
I1366
tp1496
a(I714
I1366
tp1497
a(I715
I1366
tp1498
a(I716
I1366
tp1499
a(I717
I1366
tp1500
a(I718
I1366
tp1501
a(I719
I1366
tp1502
a(I720
I1366
tp1503
a(I721
I1366
tp1504
a(I722
I1366
tp1505
a(I723
I1366
tp1506
a(I724
I1366
tp1507
a(I725
I1366
tp1508
a(I726
I1366
tp1509
a(I727
I1366
tp1510
a(I728
I1366
tp1511
a(I729
I1366
tp1512
a(I730
I1366
tp1513
a(I731
I1366
tp1514
a(I732
I1366
tp1515
a(I733
I1366
tp1516
a(I734
I1366
tp1517
a(I735
I1366
tp1518
a(I736
I1366
tp1519
a(I737
I1366
tp1520
a(I738
I1366
tp1521
a(I739
I1366
tp1522
a(I740
I1366
tp1523
a(I741
I1366
tp1524
a(I742
I1366
tp1525
a(I743
I1366
tp1526
a(I744
I1366
tp1527
a(I745
I1366
tp1528
a(I746
I1366
tp1529
a(I747
I1366
tp1530
a(I748
I1366
tp1531
a(I749
I1366
tp1532
a(I750
I1366
tp1533
a(I751
I1366
tp1534
a(I752
I1366
tp1535
a(I753
I1366
tp1536
a(I754
I1366
tp1537
a(I755
I1366
tp1538
a(I756
I1366
tp1539
a(I757
I1366
tp1540
a(I758
I1366
tp1541
a(I759
I1366
tp1542
a(I760
I1366
tp1543
a(I761
I1366
tp1544
a(I762
I1366
tp1545
a(I763
I1366
tp1546
a(I764
I1366
tp1547
a(I765
I1366
tp1548
a(I766
I1366
tp1549
a(I767
I1366
tp1550
a(I768
I1366
tp1551
a(I769
I1366
tp1552
a(I770
I1366
tp1553
a(I771
I1366
tp1554
a(I772
I1366
tp1555
a(I773
I1366
tp1556
a(I774
I1366
tp1557
a(I775
I1366
tp1558
a(I776
I1366
tp1559
a(I777
I1366
tp1560
a(I778
I1366
tp1561
a(I779
I1366
tp1562
a(I780
I1366
tp1563
a(I781
I1366
tp1564
a(I782
I1366
tp1565
a(I783
I1366
tp1566
a(I784
I1366
tp1567
a(I785
I1366
tp1568
a(I786
I1366
tp1569
a(I787
I1366
tp1570
a(I788
I1366
tp1571
a(I789
I1366
tp1572
a(I790
I1366
tp1573
a(I791
I1366
tp1574
a(I792
I1366
tp1575
a(I793
I1366
tp1576
a(I794
I1366
tp1577
a(I795
I1366
tp1578
a(I796
I1366
tp1579
a(I797
I1366
tp1580
a(I798
I1366
tp1581
a(I799
I1366
tp1582
a(I800
I1366
tp1583
a(I801
I1366
tp1584
a(I802
I1366
tp1585
a(I803
I1366
tp1586
a(I804
I1366
tp1587
a(I805
I1366
tp1588
a(I806
I1366
tp1589
a(I807
I1366
tp1590
a(I808
I1366
tp1591
a(I809
I1366
tp1592
a(I810
I1366
tp1593
a(I811
I1366
tp1594
a(I812
I1366
tp1595
a(I813
I1366
tp1596
a(I814
I1366
tp1597
a(I815
I1366
tp1598
a(I816
I1366
tp1599
a(I817
I1366
tp1600
a(I818
I1366
tp1601
a(I819
I1366
tp1602
a(I820
I1366
tp1603
a(I821
I1366
tp1604
a(I822
I1366
tp1605
a(I823
I1366
tp1606
a(I824
I1366
tp1607
a(I825
I1366
tp1608
a(I826
I1366
tp1609
a(I827
I1366
tp1610
a(I828
I1366
tp1611
a(I829
I1366
tp1612
a(I830
I1366
tp1613
a(I831
I1366
tp1614
a(I832
I1366
tp1615
a(I833
I1366
tp1616
a(I834
I1366
tp1617
a(I835
I1366
tp1618
a(I836
I1366
tp1619
a(I837
I1366
tp1620
a(I838
I1366
tp1621
a(I839
I1366
tp1622
a(I840
I1366
tp1623
a(I841
I1366
tp1624
a(I842
I1366
tp1625
a(I843
I1366
tp1626
a(I844
I1366
tp1627
a(I845
I1366
tp1628
a(I846
I1366
tp1629
a(I847
I1366
tp1630
a(I848
I1366
tp1631
a(I849
I1366
tp1632
a(I850
I1366
tp1633
a(I851
I1366
tp1634
a(I852
I1366
tp1635
a(I853
I1366
tp1636
a(I854
I1366
tp1637
a(I855
I1366
tp1638
a(I856
I1366
tp1639
a(I857
I1366
tp1640
a(I858
I1366
tp1641
a(I859
I1366
tp1642
a(I860
I1366
tp1643
a(I861
I1366
tp1644
a(I862
I1366
tp1645
a(I863
I1366
tp1646
a(I864
I1366
tp1647
a(I865
I1366
tp1648
a(I866
I1366
tp1649
a(I867
I1366
tp1650
a(I868
I1366
tp1651
a(I869
I1366
tp1652
a(I870
I1366
tp1653
a(I871
I1366
tp1654
a(I872
I1366
tp1655
a(I873
I1366
tp1656
a(I874
I1366
tp1657
a(I875
I1366
tp1658
a(I876
I1366
tp1659
a(I877
I1366
tp1660
a(I878
I1366
tp1661
a(I879
I1366
tp1662
a(I880
I1366
tp1663
a(I881
I1366
tp1664
a(I882
I1366
tp1665
a(I883
I1366
tp1666
a(I884
I1366
tp1667
a(I885
I1366
tp1668
a(I886
I1366
tp1669
a(I887
I1366
tp1670
a(I888
I1366
tp1671
a(I889
I1366
tp1672
a(I890
I1366
tp1673
a(I891
I1366
tp1674
a(I892
I1366
tp1675
a(I893
I1366
tp1676
a(I894
I1366
tp1677
a(I895
I1366
tp1678
a(I896
I1366
tp1679
a(I897
I1366
tp1680
a(I898
I1366
tp1681
a(I899
I1366
tp1682
a(I900
I1366
tp1683
a(I901
I1366
tp1684
a(I902
I1366
tp1685
a(I903
I1366
tp1686
a(I904
I1366
tp1687
a(I905
I1366
tp1688
a(I906
I1366
tp1689
a(I907
I1366
tp1690
a(I908
I1366
tp1691
a(I909
I1366
tp1692
a(I910
I1366
tp1693
a(I911
I1366
tp1694
a(I912
I1366
tp1695
a(I913
I1366
tp1696
a(I914
I1366
tp1697
a(I915
I1366
tp1698
a(I916
I1366
tp1699
a(I917
I1366
tp1700
a(I918
I1366
tp1701
a(I919
I1366
tp1702
a(I920
I1366
tp1703
a(I921
I1366
tp1704
a(I922
I1366
tp1705
a(I923
I1366
tp1706
a(I924
I1366
tp1707
a(I925
I1366
tp1708
a(I926
I1366
tp1709
a(I927
I1366
tp1710
a(I928
I1366
tp1711
a(I929
I1366
tp1712
a(I930
I1366
tp1713
a(I931
I1366
tp1714
a(I932
I1366
tp1715
a(I933
I1366
tp1716
a(I934
I1366
tp1717
a(I935
I1366
tp1718
a(I936
I1366
tp1719
a(I937
I1366
tp1720
a(I938
I1366
tp1721
a(I939
I1366
tp1722
a(I940
I1366
tp1723
a(I941
I1366
tp1724
a(I942
I1366
tp1725
a(I943
I1366
tp1726
a(I944
I1366
tp1727
a(I945
I1366
tp1728
a(I946
I1366
tp1729
a(I947
I1366
tp1730
a(I948
I1366
tp1731
a(I949
I1366
tp1732
a(I950
I1366
tp1733
a(I951
I1366
tp1734
a(I952
I1366
tp1735
a(I953
I1366
tp1736
a(I954
I1366
tp1737
a(I955
I1366
tp1738
a(I956
I1366
tp1739
a(I957
I1366
tp1740
a(I958
I1366
tp1741
a(I959
I1366
tp1742
a(I960
I1366
tp1743
a(I961
I1366
tp1744
a(I962
I1366
tp1745
a(I963
I1366
tp1746
a(I964
I1366
tp1747
a(I965
I1366
tp1748
a(I966
I1366
tp1749
a(I967
I1366
tp1750
a(I968
I1366
tp1751
a(I969
I1366
tp1752
a(I970
I1366
tp1753
a(I971
I1366
tp1754
a(I972
I1366
tp1755
a(I973
I1366
tp1756
a(I974
I1366
tp1757
a(I975
I1366
tp1758
a(I976
I1366
tp1759
a(I977
I1366
tp1760
a(I978
I1366
tp1761
a(I979
I1366
tp1762
a(I980
I1366
tp1763
a(I981
I1366
tp1764
a(I982
I1366
tp1765
a(I983
I1366
tp1766
a(I984
I1366
tp1767
a(I985
I1366
tp1768
a(I986
I1366
tp1769
a(I987
I1366
tp1770
a(I988
I1366
tp1771
a(I989
I1366
tp1772
a(I990
I1366
tp1773
a(I991
I1366
tp1774
a(I992
I1366
tp1775
a(I993
I1366
tp1776
a(I994
I1366
tp1777
a(I995
I1366
tp1778
a(I996
I1366
tp1779
a(I997
I1366
tp1780
a(I998
I1366
tp1781
a(I999
I1366
tp1782
a(I1000
I1366
tp1783
a(I1001
I1366
tp1784
a(I1002
I1366
tp1785
a(I1003
I1366
tp1786
a(I1004
I1366
tp1787
a(I1005
I1366
tp1788
a(I1006
I1366
tp1789
a(I1007
I1366
tp1790
a(I1008
I1366
tp1791
a(I1009
I1366
tp1792
a(I1010
I1366
tp1793
a(I1011
I1366
tp1794
a(I1012
I1366
tp1795
a(I1013
I1366
tp1796
a(I1014
I1366
tp1797
a(I1015
I1366
tp1798
a(I1016
I1366
tp1799
a(I1017
I1366
tp1800
a(I1018
I1366
tp1801
a(I1019
I1366
tp1802
a(I1020
I1366
tp1803
a(I1021
I1366
tp1804
a(I1022
I1366
tp1805
a(I1023
I1366
tp1806
a(I1024
I1366
tp1807
a(I1025
I1366
tp1808
a(I1026
I1366
tp1809
a(I1027
I1366
tp1810
a(I1028
I1366
tp1811
a(I1029
I1366
tp1812
a(I1030
I1366
tp1813
a(I1031
I1366
tp1814
a(I1032
I1366
tp1815
a(I1033
I1366
tp1816
a(I1034
I1366
tp1817
a(I1035
I1366
tp1818
a(I1036
I1366
tp1819
a(I1037
I1366
tp1820
a(I1038
I1366
tp1821
a(I1039
I1366
tp1822
a(I1040
I1366
tp1823
a(I1041
I1366
tp1824
a(I1042
I1366
tp1825
a(I1043
I1366
tp1826
a(I1044
I1366
tp1827
a(I1045
I1366
tp1828
a(I1046
I1366
tp1829
a(I1047
I1366
tp1830
a(I1048
I1366
tp1831
a(I1049
I1366
tp1832
a(I1050
I1366
tp1833
a(I1051
I1366
tp1834
a(I1052
I1366
tp1835
a(I1053
I1366
tp1836
a(I1054
I1366
tp1837
a(I1055
I1366
tp1838
a(I1056
I1366
tp1839
a(I1057
I1366
tp1840
a(I1058
I1366
tp1841
a(I1059
I1366
tp1842
a(I1060
I1366
tp1843
a(I1061
I1366
tp1844
a(I1062
I1366
tp1845
a(I1063
I1366
tp1846
a(I1064
I1366
tp1847
a(I1065
I1366
tp1848
a(I1066
I1366
tp1849
a(I1067
I1366
tp1850
a(I1068
I1366
tp1851
a(I1069
I1366
tp1852
a(I1070
I1366
tp1853
a(I1071
I1366
tp1854
a(I1072
I1366
tp1855
a(I1073
I1366
tp1856
a(I1074
I1366
tp1857
a(I1075
I1366
tp1858
a(I1076
I1366
tp1859
a(I1077
I1366
tp1860
a(I1078
I1366
tp1861
a(I1079
I1366
tp1862
a(I1080
I1366
tp1863
a(I1081
I1366
tp1864
a(I1082
I1366
tp1865
a(I1083
I1366
tp1866
a(I1084
I1366
tp1867
a(I1085
I1366
tp1868
a(I1086
I1366
tp1869
a(I1087
I1366
tp1870
a(I1088
I1366
tp1871
a(I1089
I1366
tp1872
a(I1090
I1366
tp1873
a(I1091
I1366
tp1874
a(I1092
I1366
tp1875
a(I1093
I1366
tp1876
a(I1094
I1366
tp1877
a(I1095
I1366
tp1878
a(I1096
I1366
tp1879
a(I1097
I1366
tp1880
a(I1098
I1366
tp1881
a(I1099
I1366
tp1882
a(I1100
I1366
tp1883
a(I1101
I1366
tp1884
a(I1102
I1366
tp1885
a(I1103
I1366
tp1886
a(I1104
I1366
tp1887
a(I1105
I1366
tp1888
a(I1106
I1366
tp1889
a(I1107
I1366
tp1890
a(I1108
I1366
tp1891
a(I1109
I1366
tp1892
a(I1110
I1366
tp1893
a(I1111
I1366
tp1894
a(I1112
I1366
tp1895
a(I1113
I1366
tp1896
a(I1114
I1366
tp1897
a(I1115
I1366
tp1898
a(I1116
I1366
tp1899
a(I1117
I1366
tp1900
a(I1118
I1366
tp1901
a(I1119
I1366
tp1902
a(I1120
I1366
tp1903
a(I1121
I1366
tp1904
a(I1122
I1366
tp1905
a(I1123
I1366
tp1906
a(I1124
I1366
tp1907
a(I1125
I1366
tp1908
a(I1126
I1366
tp1909
a(I1127
I1366
tp1910
a(I1128
I1366
tp1911
a(I1129
I1366
tp1912
a(I1130
I1366
tp1913
a(I1131
I1366
tp1914
a(I1132
I1366
tp1915
a(I1133
I1366
tp1916
a(I1134
I1366
tp1917
a(I1135
I1366
tp1918
a(I1136
I1366
tp1919
a(I1137
I1366
tp1920
a(I1138
I1366
tp1921
a(I1139
I1366
tp1922
a(I1140
I1366
tp1923
a(I1141
I1366
tp1924
a(I1142
I1366
tp1925
a(I1143
I1366
tp1926
a(I1144
I1366
tp1927
a(I1145
I1366
tp1928
a(I1146
I1366
tp1929
a(I1147
I1366
tp1930
a(I1148
I1366
tp1931
a(I1149
I1366
tp1932
a(I1150
I1366
tp1933
a(I1151
I1366
tp1934
a(I1152
I1366
tp1935
a(I1153
I1366
tp1936
a(I1154
I1366
tp1937
a(I1155
I1366
tp1938
a(I1156
I1366
tp1939
a(I1157
I1366
tp1940
a(I1158
I1366
tp1941
a(I1159
I1366
tp1942
a(I1160
I1366
tp1943
a(I1161
I1366
tp1944
a(I1162
I1366
tp1945
a(I1163
I1366
tp1946
a(I1164
I1366
tp1947
a(I1165
I1366
tp1948
a(I1166
I1366
tp1949
a(I1167
I1366
tp1950
a(I1168
I1366
tp1951
a(I1169
I1366
tp1952
a(I1170
I1366
tp1953
a(I1171
I1366
tp1954
a(I1172
I1366
tp1955
a(I1173
I1366
tp1956
a(I1174
I1366
tp1957
a(I1175
I1366
tp1958
a(I1176
I1366
tp1959
a(I1177
I1366
tp1960
a(I1178
I1366
tp1961
a(I1179
I1366
tp1962
a(I1180
I1366
tp1963
a(I1181
I1366
tp1964
a(I1182
I1366
tp1965
a(I1183
I1366
tp1966
a(I1184
I1366
tp1967
a(I1185
I1366
tp1968
a(I1186
I1366
tp1969
a(I1187
I1366
tp1970
a(I1188
I1366
tp1971
a(I1189
I1366
tp1972
a(I1190
I1366
tp1973
a(I1191
I1366
tp1974
a(I1192
I1366
tp1975
a(I1193
I1366
tp1976
a(I1194
I1366
tp1977
a(I1195
I1366
tp1978
a(I1196
I1366
tp1979
a(I1197
I1366
tp1980
a(I1198
I1366
tp1981
a(I1199
I1366
tp1982
a(I1200
I1366
tp1983
a(I1201
I1366
tp1984
a(I1202
I1366
tp1985
a(I1203
I1366
tp1986
a(I1204
I1366
tp1987
a(I1205
I1366
tp1988
a(I1206
I1366
tp1989
a(I1207
I1366
tp1990
a(I1208
I1366
tp1991
a(I1209
I1366
tp1992
a(I1210
I1366
tp1993
a(I1211
I1366
tp1994
a(I1212
I1366
tp1995
a(I1213
I1366
tp1996
a(I1214
I1366
tp1997
a(I1215
I1366
tp1998
a(I1216
I1366
tp1999
a(I1217
I1366
tp2000
a(I1218
I1366
tp2001
a(I1219
I1366
tp2002
a(I1220
I1366
tp2003
a(I1221
I1366
tp2004
a(I1222
I1366
tp2005
a(I1223
I1366
tp2006
a(I1224
I1366
tp2007
a(I1225
I1366
tp2008
a(I1226
I1366
tp2009
a(I1227
I1366
tp2010
a(I1228
I1366
tp2011
a(I1229
I1366
tp2012
a(I1230
I1366
tp2013
a(I1231
I1366
tp2014
a(I1232
I1366
tp2015
a(I1233
I1366
tp2016
a(I1234
I1366
tp2017
a(I1235
I1366
tp2018
a(I1236
I1366
tp2019
a(I1237
I1366
tp2020
a(I1238
I1366
tp2021
a(I1239
I1366
tp2022
a(I1240
I1366
tp2023
a(I1241
I1366
tp2024
a(I1242
I1366
tp2025
a(I1243
I1366
tp2026
a(I1244
I1366
tp2027
a(I1245
I1366
tp2028
a(I1246
I1366
tp2029
a(I1247
I1366
tp2030
a(I1248
I1366
tp2031
a(I1249
I1366
tp2032
a(I1250
I1366
tp2033
a(I1251
I1366
tp2034
a(I1252
I1366
tp2035
a(I1253
I1366
tp2036
a(I1254
I1366
tp2037
a(I1255
I1366
tp2038
a(I1256
I1366
tp2039
a(I1257
I1366
tp2040
a(I1258
I1366
tp2041
a(I1259
I1366
tp2042
a(I1260
I1366
tp2043
a(I1261
I1366
tp2044
a(I1262
I1366
tp2045
a(I1263
I1366
tp2046
a(I1264
I1366
tp2047
a(I1265
I1366
tp2048
a(I1266
I1366
tp2049
a(I1267
I1366
tp2050
a(I1268
I1366
tp2051
a(I1269
I1366
tp2052
a(I1270
I1366
tp2053
a(I1271
I1366
tp2054
a(I1272
I1366
tp2055
a(I1273
I1366
tp2056
a(I1274
I1366
tp2057
a(I1275
I1366
tp2058
a(I1276
I1366
tp2059
a(I1277
I1366
tp2060
a(I1278
I1366
tp2061
a(I1279
I1366
tp2062
a(I1280
I1366
tp2063
a(I1281
I1366
tp2064
a(I1282
I1366
tp2065
a(I1283
I1366
tp2066
a(I1284
I1366
tp2067
a(I1285
I1366
tp2068
a(I1286
I1366
tp2069
a(I1287
I1366
tp2070
a(I1288
I1366
tp2071
a(I1289
I1366
tp2072
a(I1290
I1366
tp2073
a(I1291
I1366
tp2074
a(I1292
I1366
tp2075
a(I1293
I1366
tp2076
a(I1294
I1366
tp2077
a(I1295
I1366
tp2078
a(I1296
I1366
tp2079
a(I1297
I1366
tp2080
a(I1298
I1366
tp2081
a(I1299
I1366
tp2082
a(I1300
I1366
tp2083
a(I1301
I1366
tp2084
a(I1302
I1366
tp2085
a(I1303
I1366
tp2086
a(I1304
I1366
tp2087
a(I1305
I1366
tp2088
a(I1306
I1366
tp2089
a(I1307
I1366
tp2090
a(I1308
I1366
tp2091
a(I1309
I1366
tp2092
a(I1310
I1366
tp2093
a(I1311
I1366
tp2094
a(I1312
I1366
tp2095
a(I1313
I1366
tp2096
a(I1314
I1366
tp2097
a(I1315
I1366
tp2098
a(I1316
I1366
tp2099
a(I1317
I1366
tp2100
a(I1318
I1366
tp2101
a(I1319
I1366
tp2102
a(I1320
I1366
tp2103
a(I1321
I1366
tp2104
a(I1322
I1366
tp2105
a(I1323
I1366
tp2106
a(I1324
I1366
tp2107
a(I1325
I1366
tp2108
a(I1326
I1366
tp2109
a(I1327
I1366
tp2110
a(I1328
I1366
tp2111
a(I1329
I1366
tp2112
a(I1330
I1366
tp2113
a(I1331
I1366
tp2114
a(I1332
I1366
tp2115
a(I1333
I1366
tp2116
a(I1334
I1366
tp2117
a(I1335
I1366
tp2118
a(I1336
I1366
tp2119
a(I1337
I1366
tp2120
a(I1338
I1366
tp2121
a(I1339
I1366
tp2122
a(I1340
I1366
tp2123
a(I1341
I1366
tp2124
a(I1342
I1366
tp2125
a(I1343
I1366
tp2126
a(I1344
I1366
tp2127
a(I1345
I1366
tp2128
a(I1346
I1366
tp2129
a(I1347
I1366
tp2130
a(I1348
I1366
tp2131
a(I1349
I1366
tp2132
a(I1350
I1366
tp2133
a(I1351
I1366
tp2134
a(I1352
I1366
tp2135
a(I1353
I1366
tp2136
a(I1354
I1366
tp2137
a(I1355
I1366
tp2138
a(I1356
I1366
tp2139
a(I1357
I1366
tp2140
a(I1358
I1366
tp2141
a(I1359
I1366
tp2142
a(I1360
I1366
tp2143
a(I1361
I1366
tp2144
a(I1362
I1366
tp2145
a(I1363
I1366
tp2146
a(I1364
I1366
tp2147
a(I1365
I1366
tp2148
a(I1366
I1366
tp2149
a(I1367
I1366
tp2150
a(I1368
I1366
tp2151
a(I1369
I1366
tp2152
a(I1370
I1366
tp2153
a(I1371
I1366
tp2154
a(I1372
I1366
tp2155
a(I1373
I1366
tp2156
a(I1374
I1366
tp2157
a(I1375
I1366
tp2158
a(I1376
I1366
tp2159
a(I1377
I1366
tp2160
a(I1378
I1366
tp2161
a(I1379
I1366
tp2162
a(I1380
I1366
tp2163
a(I1381
I1366
tp2164
a(I1382
I1366
tp2165
a(I1383
I1366
tp2166
a(I1384
I1366
tp2167
a(I1385
I1366
tp2168
a(I1386
I1366
tp2169
a(I1387
I1366
tp2170
a(I1388
I1366
tp2171
a(I1389
I1366
tp2172
a(I1390
I1366
tp2173
a(I1391
I1366
tp2174
a(I1392
I1366
tp2175
a(I1393
I1366
tp2176
a(I1394
I1366
tp2177
a(I1395
I1366
tp2178
a(I1396
I1366
tp2179
a(I1397
I1366
tp2180
a(I1398
I1366
tp2181
a(I1399
I1366
tp2182
a(I1400
I1366
tp2183
a(I1401
I1366
tp2184
a(I1402
I1366
tp2185
a(I1403
I1366
tp2186
a(I1404
I1366
tp2187
a(I1405
I1366
tp2188
a(I1406
I1366
tp2189
a(I1407
I1366
tp2190
a(I1408
I1366
tp2191
a(I1409
I1366
tp2192
a(I1410
I1366
tp2193
a(I1411
I1366
tp2194
a(I1412
I1366
tp2195
a(I1413
I1366
tp2196
a(I1414
I1366
tp2197
a(I1415
I1366
tp2198
a(I1416
I1366
tp2199
a(I1417
I1366
tp2200
a(I1418
I1366
tp2201
a(I1419
I1366
tp2202
a(I1420
I1366
tp2203
a(I1421
I1366
tp2204
a(I1422
I1366
tp2205
a(I1423
I1366
tp2206
a(I1424
I1366
tp2207
a(I1425
I1366
tp2208
a(I1426
I1366
tp2209
a(I1427
I1366
tp2210
a(I1428
I1366
tp2211
a(I1429
I1366
tp2212
a(I1430
I1366
tp2213
a(I1431
I1366
tp2214
a(I1432
I1366
tp2215
a(I1433
I1366
tp2216
a(I1434
I1366
tp2217
a(I1435
I1366
tp2218
a(I1436
I1366
tp2219
a(I1437
I1366
tp2220
a(I1438
I1366
tp2221
a(I1439
I1366
tp2222
a(I1440
I1366
tp2223
a(I1441
I1366
tp2224
a(I1442
I1366
tp2225
a(I1443
I1366
tp2226
a(I1444
I1366
tp2227
a(I1445
I1366
tp2228
a(I1446
I1366
tp2229
a(I1447
I1366
tp2230
a(I1448
I1366
tp2231
a(I1449
I1366
tp2232
a(I1450
I1366
tp2233
a(I1451
I1366
tp2234
a(I1452
I1366
tp2235
a(I1453
I1366
tp2236
a(I1454
I1366
tp2237
a(I1455
I1366
tp2238
a(I1456
I1366
tp2239
a(I1457
I1366
tp2240
a(I1458
I1366
tp2241
a(I1459
I1366
tp2242
a(I1460
I1366
tp2243
a(I1461
I1366
tp2244
a(I1462
I1366
tp2245
a(I1463
I1366
tp2246
a(I1464
I1366
tp2247
a(I1465
I1366
tp2248
a(I1466
I1366
tp2249
a(I1467
I1366
tp2250
a(I1468
I1366
tp2251
a(I1469
I1366
tp2252
a(I1470
I1366
tp2253
a(I1471
I1366
tp2254
a.